
./target/x86_64-unknown-none/debug/deps/artifact/diy-os-a7aa7d4a0c0780b0/bin/diy_os-a7aa7d4a0c0780b0:     file format elf64-x86-64
architecture: i386:x86-64, flags 0x00000150:
HAS_SYMS, DYNAMIC, D_PAGED
start address 0x0000000000015050


Disassembly of section .text:

00000000000141f0 <_ZN6x86_6410structures6paging6mapper17mapped_page_table229_$LT$impl$u20$core..convert..From$LT$x86_64..structures..paging..mapper..mapped_page_table..PageTableCreateError$GT$$u20$for$u20$x86_64..structures..paging..mapper..MapToError$LT$x86_64..structures..paging..page..Size4KiB$GT$$GT$4from17ha4109da467daf361E>:
   141f0:	48 83 ec 18          	sub    rsp,0x18
   141f4:	48 89 3c 24          	mov    QWORD PTR [rsp],rdi
   141f8:	40 88 f0             	mov    al,sil
   141fb:	48 89 7c 24 08       	mov    QWORD PTR [rsp+0x8],rdi
   14200:	24 01                	and    al,0x1
   14202:	88 44 24 17          	mov    BYTE PTR [rsp+0x17],al
   14206:	8a 44 24 17          	mov    al,BYTE PTR [rsp+0x17]
   1420a:	24 01                	and    al,0x1
   1420c:	0f b6 c0             	movzx  eax,al
   1420f:	48 83 f8 00          	cmp    rax,0x0
   14213:	75 0d                	jne    14222 <_ZN6x86_6410structures6paging6mapper17mapped_page_table229_$LT$impl$u20$core..convert..From$LT$x86_64..structures..paging..mapper..mapped_page_table..PageTableCreateError$GT$$u20$for$u20$x86_64..structures..paging..mapper..MapToError$LT$x86_64..structures..paging..page..Size4KiB$GT$$GT$4from17ha4109da467daf361E+0x32>
   14215:	48 8b 04 24          	mov    rax,QWORD PTR [rsp]
   14219:	48 c7 00 01 00 00 00 	mov    QWORD PTR [rax],0x1
   14220:	eb 0b                	jmp    1422d <_ZN6x86_6410structures6paging6mapper17mapped_page_table229_$LT$impl$u20$core..convert..From$LT$x86_64..structures..paging..mapper..mapped_page_table..PageTableCreateError$GT$$u20$for$u20$x86_64..structures..paging..mapper..MapToError$LT$x86_64..structures..paging..page..Size4KiB$GT$$GT$4from17ha4109da467daf361E+0x3d>
   14222:	48 8b 04 24          	mov    rax,QWORD PTR [rsp]
   14226:	48 c7 00 00 00 00 00 	mov    QWORD PTR [rax],0x0
   1422d:	48 8b 44 24 08       	mov    rax,QWORD PTR [rsp+0x8]
   14232:	48 83 c4 18          	add    rsp,0x18
   14236:	c3                   	ret
   14237:	cc                   	int3
   14238:	cc                   	int3
   14239:	cc                   	int3
   1423a:	cc                   	int3
   1423b:	cc                   	int3
   1423c:	cc                   	int3
   1423d:	cc                   	int3
   1423e:	cc                   	int3
   1423f:	cc                   	int3

0000000000014240 <_ZN42_$LT$$RF$T$u20$as$u20$core..fmt..Debug$GT$3fmt17h28cb153d056eecdbE>:
   14240:	48 83 ec 18          	sub    rsp,0x18
   14244:	48 89 7c 24 08       	mov    QWORD PTR [rsp+0x8],rdi
   14249:	48 89 74 24 10       	mov    QWORD PTR [rsp+0x10],rsi
   1424e:	48 8b 3f             	mov    rdi,QWORD PTR [rdi]
   14251:	e8 7a 61 00 00       	call   1a3d0 <_ZN4core5array69_$LT$impl$u20$core..fmt..Debug$u20$for$u20$$u5b$T$u3b$$u20$N$u5d$$GT$3fmt17h752d43579d65636dE>
   14256:	24 01                	and    al,0x1
   14258:	0f b6 c0             	movzx  eax,al
   1425b:	48 83 c4 18          	add    rsp,0x18
   1425f:	c3                   	ret

0000000000014260 <_ZN42_$LT$$RF$T$u20$as$u20$core..fmt..Debug$GT$3fmt17h8fb6f9ad68a8e30eE>:
   14260:	48 83 ec 18          	sub    rsp,0x18
   14264:	48 89 7c 24 08       	mov    QWORD PTR [rsp+0x8],rdi
   14269:	48 89 74 24 10       	mov    QWORD PTR [rsp+0x10],rsi
   1426e:	48 8b 3f             	mov    rdi,QWORD PTR [rdi]
   14271:	e8 fa 59 00 00       	call   19c70 <_ZN4core3fmt3num50_$LT$impl$u20$core..fmt..Debug$u20$for$u20$u16$GT$3fmt17h41bc2c1e96cba93dE>
   14276:	24 01                	and    al,0x1
   14278:	0f b6 c0             	movzx  eax,al
   1427b:	48 83 c4 18          	add    rsp,0x18
   1427f:	c3                   	ret

0000000000014280 <_ZN42_$LT$$RF$T$u20$as$u20$core..fmt..Debug$GT$3fmt17hd7265640b44f673eE>:
   14280:	48 83 ec 18          	sub    rsp,0x18
   14284:	48 89 7c 24 08       	mov    QWORD PTR [rsp+0x8],rdi
   14289:	48 89 74 24 10       	mov    QWORD PTR [rsp+0x10],rsi
   1428e:	48 8b 3f             	mov    rdi,QWORD PTR [rdi]
   14291:	e8 4a 59 00 00       	call   19be0 <_ZN4core3fmt3num49_$LT$impl$u20$core..fmt..Debug$u20$for$u20$u8$GT$3fmt17hf0c4bb27ba984a36E>
   14296:	24 01                	and    al,0x1
   14298:	0f b6 c0             	movzx  eax,al
   1429b:	48 83 c4 18          	add    rsp,0x18
   1429f:	c3                   	ret

00000000000142a0 <_ZN48_$LT$$u5b$T$u5d$$u20$as$u20$core..fmt..Debug$GT$3fmt17hba404dc4c4ab637aE>:
   142a0:	48 83 ec 78          	sub    rsp,0x78
   142a4:	48 89 54 24 08       	mov    QWORD PTR [rsp+0x8],rdx
   142a9:	48 89 f0             	mov    rax,rsi
   142ac:	48 8b 74 24 08       	mov    rsi,QWORD PTR [rsp+0x8]
   142b1:	48 89 44 24 10       	mov    QWORD PTR [rsp+0x10],rax
   142b6:	48 89 7c 24 18       	mov    QWORD PTR [rsp+0x18],rdi
   142bb:	48 89 7c 24 38       	mov    QWORD PTR [rsp+0x38],rdi
   142c0:	48 89 44 24 40       	mov    QWORD PTR [rsp+0x40],rax
   142c5:	48 89 74 24 48       	mov    QWORD PTR [rsp+0x48],rsi
   142ca:	48 8b 05 cf 2c 03 00 	mov    rax,QWORD PTR [rip+0x32ccf]        # 46fa0 <_DYNAMIC+0x108>
   142d1:	48 8d 7c 24 20       	lea    rdi,[rsp+0x20]
   142d6:	ff d0                	call   rax
   142d8:	48 8b 74 24 10       	mov    rsi,QWORD PTR [rsp+0x10]
   142dd:	48 8b 7c 24 18       	mov    rdi,QWORD PTR [rsp+0x18]
   142e2:	48 89 74 24 50       	mov    QWORD PTR [rsp+0x50],rsi
   142e7:	48 89 7c 24 58       	mov    QWORD PTR [rsp+0x58],rdi
   142ec:	48 89 74 24 60       	mov    QWORD PTR [rsp+0x60],rsi
   142f1:	48 89 7c 24 68       	mov    QWORD PTR [rsp+0x68],rdi
   142f6:	48 8b 4c 24 10       	mov    rcx,QWORD PTR [rsp+0x10]
   142fb:	48 8b 44 24 18       	mov    rax,QWORD PTR [rsp+0x18]
   14300:	48 89 44 24 70       	mov    QWORD PTR [rsp+0x70],rax
   14305:	48 01 c8             	add    rax,rcx
   14308:	48 89 44 24 30       	mov    QWORD PTR [rsp+0x30],rax
   1430d:	48 8b 74 24 18       	mov    rsi,QWORD PTR [rsp+0x18]
   14312:	48 8b 54 24 30       	mov    rdx,QWORD PTR [rsp+0x30]
   14317:	48 8d 7c 24 20       	lea    rdi,[rsp+0x20]
   1431c:	e8 3f 28 00 00       	call   16b60 <_ZN4core3fmt8builders9DebugList7entries17he19d08dd6d17d45aE>
   14321:	48 89 c7             	mov    rdi,rax
   14324:	48 8b 05 7d 2c 03 00 	mov    rax,QWORD PTR [rip+0x32c7d]        # 46fa8 <_DYNAMIC+0x110>
   1432b:	ff d0                	call   rax
   1432d:	24 01                	and    al,0x1
   1432f:	0f b6 c0             	movzx  eax,al
   14332:	48 83 c4 78          	add    rsp,0x78
   14336:	c3                   	ret
   14337:	cc                   	int3
   14338:	cc                   	int3
   14339:	cc                   	int3
   1433a:	cc                   	int3
   1433b:	cc                   	int3
   1433c:	cc                   	int3
   1433d:	cc                   	int3
   1433e:	cc                   	int3
   1433f:	cc                   	int3

0000000000014340 <_ZN4core3ops8function5impls80_$LT$impl$u20$core..ops..function..FnOnce$LT$A$GT$$u20$for$u20$$RF$mut$u20$F$GT$9call_once17h034171e98b4d7853E>:
   14340:	48 83 ec 18          	sub    rsp,0x18
   14344:	48 89 74 24 08       	mov    QWORD PTR [rsp+0x8],rsi
   14349:	48 89 7c 24 10       	mov    QWORD PTR [rsp+0x10],rdi
   1434e:	48 8b 74 24 08       	mov    rsi,QWORD PTR [rsp+0x8]
   14353:	e8 08 00 00 00       	call   14360 <_ZN6x86_6410structures6paging10page_table9PageTable8iter_mut28_$u7b$$u7b$closure$u7d$$u7d$17h7ee06cf033b3de55E>
   14358:	48 83 c4 18          	add    rsp,0x18
   1435c:	c3                   	ret
   1435d:	cc                   	int3
   1435e:	cc                   	int3
   1435f:	cc                   	int3

0000000000014360 <_ZN6x86_6410structures6paging10page_table9PageTable8iter_mut28_$u7b$$u7b$closure$u7d$$u7d$17h7ee06cf033b3de55E>:
   14360:	48 83 ec 20          	sub    rsp,0x20
   14364:	48 89 3c 24          	mov    QWORD PTR [rsp],rdi
   14368:	48 89 74 24 08       	mov    QWORD PTR [rsp+0x8],rsi
   1436d:	48 8b 07             	mov    rax,QWORD PTR [rdi]
   14370:	48 89 44 24 10       	mov    QWORD PTR [rsp+0x10],rax
   14375:	48 89 74 24 18       	mov    QWORD PTR [rsp+0x18],rsi
   1437a:	48 c1 e6 03          	shl    rsi,0x3
   1437e:	48 01 f0             	add    rax,rsi
   14381:	48 83 c4 20          	add    rsp,0x20
   14385:	c3                   	ret
   14386:	cc                   	int3
   14387:	cc                   	int3
   14388:	cc                   	int3
   14389:	cc                   	int3
   1438a:	cc                   	int3
   1438b:	cc                   	int3
   1438c:	cc                   	int3
   1438d:	cc                   	int3
   1438e:	cc                   	int3
   1438f:	cc                   	int3

0000000000014390 <_ZN42_$LT$$RF$T$u20$as$u20$core..fmt..Debug$GT$3fmt17h736ae0223238f253E>:
   14390:	48 83 ec 18          	sub    rsp,0x18
   14394:	48 89 7c 24 08       	mov    QWORD PTR [rsp+0x8],rdi
   14399:	48 89 74 24 10       	mov    QWORD PTR [rsp+0x10],rsi
   1439e:	48 8b 3f             	mov    rdi,QWORD PTR [rdi]
   143a1:	e8 0a 00 00 00       	call   143b0 <_ZN90_$LT$x86_64..structures..paging..frame..PhysFrame$LT$S$GT$$u20$as$u20$core..fmt..Debug$GT$3fmt17hf36eef2eaddee8e1E>
   143a6:	24 01                	and    al,0x1
   143a8:	0f b6 c0             	movzx  eax,al
   143ab:	48 83 c4 18          	add    rsp,0x18
   143af:	c3                   	ret

00000000000143b0 <_ZN90_$LT$x86_64..structures..paging..frame..PhysFrame$LT$S$GT$$u20$as$u20$core..fmt..Debug$GT$3fmt17hf36eef2eaddee8e1E>:
   143b0:	48 81 ec 88 02 00 00 	sub    rsp,0x288
   143b7:	48 89 74 24 08       	mov    QWORD PTR [rsp+0x8],rsi
   143bc:	48 89 bc 24 c0 01 00 	mov    QWORD PTR [rsp+0x1c0],rdi
   143c3:	00 
   143c4:	48 89 b4 24 c8 01 00 	mov    QWORD PTR [rsp+0x1c8],rsi
   143cb:	00 
   143cc:	48 8d 0d 9d a3 02 00 	lea    rcx,[rip+0x2a39d]        # 3e770 <memmove+0x1040>
   143d3:	48 89 8c 24 58 02 00 	mov    QWORD PTR [rsp+0x258],rcx
   143da:	00 
   143db:	48 8b 05 ce 2b 03 00 	mov    rax,QWORD PTR [rip+0x32bce]        # 46fb0 <_DYNAMIC+0x118>
   143e2:	48 89 84 24 60 02 00 	mov    QWORD PTR [rsp+0x260],rax
   143e9:	00 
   143ea:	48 89 8c 24 48 02 00 	mov    QWORD PTR [rsp+0x248],rcx
   143f1:	00 
   143f2:	48 89 84 24 50 02 00 	mov    QWORD PTR [rsp+0x250],rax
   143f9:	00 
   143fa:	48 8b 84 24 48 02 00 	mov    rax,QWORD PTR [rsp+0x248]
   14401:	00 
   14402:	48 8b 8c 24 50 02 00 	mov    rcx,QWORD PTR [rsp+0x250]
   14409:	00 
   1440a:	48 89 4c 24 68       	mov    QWORD PTR [rsp+0x68],rcx
   1440f:	48 89 44 24 60       	mov    QWORD PTR [rsp+0x60],rax
   14414:	48 8b 07             	mov    rax,QWORD PTR [rdi]
   14417:	48 89 84 24 88 00 00 	mov    QWORD PTR [rsp+0x88],rax
   1441e:	00 
   1441f:	48 8b 84 24 88 00 00 	mov    rax,QWORD PTR [rsp+0x88]
   14426:	00 
   14427:	48 89 84 24 d0 01 00 	mov    QWORD PTR [rsp+0x1d0],rax
   1442e:	00 
   1442f:	48 8b bc 24 d0 01 00 	mov    rdi,QWORD PTR [rsp+0x1d0]
   14436:	00 
   14437:	48 8b 05 7a 2b 03 00 	mov    rax,QWORD PTR [rip+0x32b7a]        # 46fb8 <_DYNAMIC+0x120>
   1443e:	ff d0                	call   rax
   14440:	48 89 c7             	mov    rdi,rax
   14443:	e8 48 2c 00 00       	call   17090 <_ZN6x86_644addr8PhysAddr6as_u6417hc09d4a4fde14ded3E>
   14448:	48 89 84 24 80 00 00 	mov    QWORD PTR [rsp+0x80],rax
   1444f:	00 
   14450:	48 8d 8c 24 80 00 00 	lea    rcx,[rsp+0x80]
   14457:	00 
   14458:	48 89 8c 24 78 02 00 	mov    QWORD PTR [rsp+0x278],rcx
   1445f:	00 
   14460:	48 8b 05 59 2b 03 00 	mov    rax,QWORD PTR [rip+0x32b59]        # 46fc0 <_DYNAMIC+0x128>
   14467:	48 89 84 24 80 02 00 	mov    QWORD PTR [rsp+0x280],rax
   1446e:	00 
   1446f:	48 89 8c 24 68 02 00 	mov    QWORD PTR [rsp+0x268],rcx
   14476:	00 
   14477:	48 89 84 24 70 02 00 	mov    QWORD PTR [rsp+0x270],rax
   1447e:	00 
   1447f:	48 8b 84 24 68 02 00 	mov    rax,QWORD PTR [rsp+0x268]
   14486:	00 
   14487:	48 89 44 24 70       	mov    QWORD PTR [rsp+0x70],rax
   1448c:	48 8b 84 24 70 02 00 	mov    rax,QWORD PTR [rsp+0x270]
   14493:	00 
   14494:	48 89 44 24 78       	mov    QWORD PTR [rsp+0x78],rax
   14499:	48 8b 44 24 60       	mov    rax,QWORD PTR [rsp+0x60]
   1449e:	48 89 44 24 40       	mov    QWORD PTR [rsp+0x40],rax
   144a3:	48 8b 44 24 68       	mov    rax,QWORD PTR [rsp+0x68]
   144a8:	48 89 44 24 48       	mov    QWORD PTR [rsp+0x48],rax
   144ad:	48 8b 44 24 70       	mov    rax,QWORD PTR [rsp+0x70]
   144b2:	48 89 44 24 50       	mov    QWORD PTR [rsp+0x50],rax
   144b7:	48 8b 44 24 78       	mov    rax,QWORD PTR [rsp+0x78]
   144bc:	48 89 44 24 58       	mov    QWORD PTR [rsp+0x58],rax
   144c1:	c6 84 24 3f 01 00 00 	mov    BYTE PTR [rsp+0x13f],0x3
   144c8:	03 
   144c9:	48 c7 84 24 40 01 00 	mov    QWORD PTR [rsp+0x140],0x2
   144d0:	00 02 00 00 00 
   144d5:	48 c7 84 24 50 01 00 	mov    QWORD PTR [rsp+0x150],0x2
   144dc:	00 02 00 00 00 
   144e1:	40 8a bc 24 3f 01 00 	mov    dil,BYTE PTR [rsp+0x13f]
   144e8:	00 
   144e9:	48 8b b4 24 40 01 00 	mov    rsi,QWORD PTR [rsp+0x140]
   144f0:	00 
   144f1:	48 8b 94 24 48 01 00 	mov    rdx,QWORD PTR [rsp+0x148]
   144f8:	00 
   144f9:	48 8b 8c 24 50 01 00 	mov    rcx,QWORD PTR [rsp+0x150]
   14500:	00 
   14501:	48 8b 84 24 58 01 00 	mov    rax,QWORD PTR [rsp+0x158]
   14508:	00 
   14509:	48 c7 84 24 10 02 00 	mov    QWORD PTR [rsp+0x210],0x0
   14510:	00 00 00 00 00 
   14515:	c7 84 24 1c 02 00 00 	mov    DWORD PTR [rsp+0x21c],0x20
   1451c:	20 00 00 00 
   14520:	40 88 bc 24 23 02 00 	mov    BYTE PTR [rsp+0x223],dil
   14527:	00 
   14528:	c7 84 24 24 02 00 00 	mov    DWORD PTR [rsp+0x224],0x0
   1452f:	00 00 00 00 
   14533:	48 89 b4 24 28 02 00 	mov    QWORD PTR [rsp+0x228],rsi
   1453a:	00 
   1453b:	48 89 94 24 30 02 00 	mov    QWORD PTR [rsp+0x230],rdx
   14542:	00 
   14543:	48 89 8c 24 38 02 00 	mov    QWORD PTR [rsp+0x238],rcx
   1454a:	00 
   1454b:	48 89 84 24 40 02 00 	mov    QWORD PTR [rsp+0x240],rax
   14552:	00 
   14553:	48 c7 84 24 20 01 00 	mov    QWORD PTR [rsp+0x120],0x0
   1455a:	00 00 00 00 00 
   1455f:	c7 84 24 28 01 00 00 	mov    DWORD PTR [rsp+0x128],0x20
   14566:	20 00 00 00 
   1456a:	40 88 bc 24 30 01 00 	mov    BYTE PTR [rsp+0x130],dil
   14571:	00 
   14572:	c7 84 24 2c 01 00 00 	mov    DWORD PTR [rsp+0x12c],0x0
   14579:	00 00 00 00 
   1457d:	48 89 b4 24 00 01 00 	mov    QWORD PTR [rsp+0x100],rsi
   14584:	00 
   14585:	48 89 94 24 08 01 00 	mov    QWORD PTR [rsp+0x108],rdx
   1458c:	00 
   1458d:	48 89 8c 24 10 01 00 	mov    QWORD PTR [rsp+0x110],rcx
   14594:	00 
   14595:	48 89 84 24 18 01 00 	mov    QWORD PTR [rsp+0x118],rax
   1459c:	00 
   1459d:	c6 84 24 9f 01 00 00 	mov    BYTE PTR [rsp+0x19f],0x3
   145a4:	03 
   145a5:	48 c7 84 24 a0 01 00 	mov    QWORD PTR [rsp+0x1a0],0x2
   145ac:	00 02 00 00 00 
   145b1:	48 c7 84 24 b0 01 00 	mov    QWORD PTR [rsp+0x1b0],0x2
   145b8:	00 02 00 00 00 
   145bd:	40 8a bc 24 9f 01 00 	mov    dil,BYTE PTR [rsp+0x19f]
   145c4:	00 
   145c5:	48 8b b4 24 a0 01 00 	mov    rsi,QWORD PTR [rsp+0x1a0]
   145cc:	00 
   145cd:	48 8b 94 24 a8 01 00 	mov    rdx,QWORD PTR [rsp+0x1a8]
   145d4:	00 
   145d5:	48 8b 8c 24 b0 01 00 	mov    rcx,QWORD PTR [rsp+0x1b0]
   145dc:	00 
   145dd:	48 8b 84 24 b8 01 00 	mov    rax,QWORD PTR [rsp+0x1b8]
   145e4:	00 
   145e5:	48 c7 84 24 d8 01 00 	mov    QWORD PTR [rsp+0x1d8],0x1
   145ec:	00 01 00 00 00 
   145f1:	c7 84 24 e4 01 00 00 	mov    DWORD PTR [rsp+0x1e4],0x20
   145f8:	20 00 00 00 
   145fc:	40 88 bc 24 eb 01 00 	mov    BYTE PTR [rsp+0x1eb],dil
   14603:	00 
   14604:	c7 84 24 ec 01 00 00 	mov    DWORD PTR [rsp+0x1ec],0x4
   1460b:	04 00 00 00 
   1460f:	48 89 b4 24 f0 01 00 	mov    QWORD PTR [rsp+0x1f0],rsi
   14616:	00 
   14617:	48 89 94 24 f8 01 00 	mov    QWORD PTR [rsp+0x1f8],rdx
   1461e:	00 
   1461f:	48 89 8c 24 00 02 00 	mov    QWORD PTR [rsp+0x200],rcx
   14626:	00 
   14627:	48 89 84 24 08 02 00 	mov    QWORD PTR [rsp+0x208],rax
   1462e:	00 
   1462f:	48 c7 84 24 80 01 00 	mov    QWORD PTR [rsp+0x180],0x1
   14636:	00 01 00 00 00 
   1463b:	c7 84 24 88 01 00 00 	mov    DWORD PTR [rsp+0x188],0x20
   14642:	20 00 00 00 
   14646:	40 88 bc 24 90 01 00 	mov    BYTE PTR [rsp+0x190],dil
   1464d:	00 
   1464e:	c7 84 24 8c 01 00 00 	mov    DWORD PTR [rsp+0x18c],0x4
   14655:	04 00 00 00 
   14659:	48 89 b4 24 60 01 00 	mov    QWORD PTR [rsp+0x160],rsi
   14660:	00 
   14661:	48 89 94 24 68 01 00 	mov    QWORD PTR [rsp+0x168],rdx
   14668:	00 
   14669:	48 89 8c 24 70 01 00 	mov    QWORD PTR [rsp+0x170],rcx
   14670:	00 
   14671:	48 89 84 24 78 01 00 	mov    QWORD PTR [rsp+0x178],rax
   14678:	00 
   14679:	48 8d 84 24 90 00 00 	lea    rax,[rsp+0x90]
   14680:	00 
   14681:	48 8b 8c 24 30 01 00 	mov    rcx,QWORD PTR [rsp+0x130]
   14688:	00 
   14689:	48 89 48 30          	mov    QWORD PTR [rax+0x30],rcx
   1468d:	48 8b 8c 24 28 01 00 	mov    rcx,QWORD PTR [rsp+0x128]
   14694:	00 
   14695:	48 89 48 28          	mov    QWORD PTR [rax+0x28],rcx
   14699:	48 8b 8c 24 20 01 00 	mov    rcx,QWORD PTR [rsp+0x120]
   146a0:	00 
   146a1:	48 89 48 20          	mov    QWORD PTR [rax+0x20],rcx
   146a5:	48 8b 8c 24 18 01 00 	mov    rcx,QWORD PTR [rsp+0x118]
   146ac:	00 
   146ad:	48 89 48 18          	mov    QWORD PTR [rax+0x18],rcx
   146b1:	48 8b 8c 24 10 01 00 	mov    rcx,QWORD PTR [rsp+0x110]
   146b8:	00 
   146b9:	48 89 48 10          	mov    QWORD PTR [rax+0x10],rcx
   146bd:	48 8b 8c 24 00 01 00 	mov    rcx,QWORD PTR [rsp+0x100]
   146c4:	00 
   146c5:	48 8b 94 24 08 01 00 	mov    rdx,QWORD PTR [rsp+0x108]
   146cc:	00 
   146cd:	48 89 50 08          	mov    QWORD PTR [rax+0x8],rdx
   146d1:	48 89 08             	mov    QWORD PTR [rax],rcx
   146d4:	48 8d 84 24 90 00 00 	lea    rax,[rsp+0x90]
   146db:	00 
   146dc:	48 83 c0 38          	add    rax,0x38
   146e0:	48 8b 8c 24 90 01 00 	mov    rcx,QWORD PTR [rsp+0x190]
   146e7:	00 
   146e8:	48 89 48 30          	mov    QWORD PTR [rax+0x30],rcx
   146ec:	48 8b 8c 24 88 01 00 	mov    rcx,QWORD PTR [rsp+0x188]
   146f3:	00 
   146f4:	48 89 48 28          	mov    QWORD PTR [rax+0x28],rcx
   146f8:	48 8b 8c 24 80 01 00 	mov    rcx,QWORD PTR [rsp+0x180]
   146ff:	00 
   14700:	48 89 48 20          	mov    QWORD PTR [rax+0x20],rcx
   14704:	48 8b 8c 24 78 01 00 	mov    rcx,QWORD PTR [rsp+0x178]
   1470b:	00 
   1470c:	48 89 48 18          	mov    QWORD PTR [rax+0x18],rcx
   14710:	48 8b 8c 24 70 01 00 	mov    rcx,QWORD PTR [rsp+0x170]
   14717:	00 
   14718:	48 89 48 10          	mov    QWORD PTR [rax+0x10],rcx
   1471c:	48 8b 8c 24 60 01 00 	mov    rcx,QWORD PTR [rsp+0x160]
   14723:	00 
   14724:	48 8b 94 24 68 01 00 	mov    rdx,QWORD PTR [rsp+0x168]
   1472b:	00 
   1472c:	48 89 50 08          	mov    QWORD PTR [rax+0x8],rdx
   14730:	48 89 08             	mov    QWORD PTR [rax],rcx
   14733:	48 89 e0             	mov    rax,rsp
   14736:	48 c7 00 02 00 00 00 	mov    QWORD PTR [rax],0x2
   1473d:	48 8d 35 fc 9f 02 00 	lea    rsi,[rip+0x29ffc]        # 3e740 <memmove+0x1010>
   14744:	48 8d 7c 24 10       	lea    rdi,[rsp+0x10]
   14749:	ba 03 00 00 00       	mov    edx,0x3
   1474e:	48 8d 4c 24 40       	lea    rcx,[rsp+0x40]
   14753:	41 b8 02 00 00 00    	mov    r8d,0x2
   14759:	4c 8d 8c 24 90 00 00 	lea    r9,[rsp+0x90]
   14760:	00 
   14761:	e8 2a 09 00 00       	call   15090 <_ZN4core3fmt9Arguments16new_v1_formatted17h38f2268b2d174e11E>
   14766:	48 8b 7c 24 08       	mov    rdi,QWORD PTR [rsp+0x8]
   1476b:	48 8d 74 24 10       	lea    rsi,[rsp+0x10]
   14770:	e8 9b 0a 00 00       	call   15210 <_ZN4core3fmt9Formatter9write_fmt17hfaba5e14e44fb67eE>
   14775:	24 01                	and    al,0x1
   14777:	0f b6 c0             	movzx  eax,al
   1477a:	48 81 c4 88 02 00 00 	add    rsp,0x288
   14781:	c3                   	ret
   14782:	cc                   	int3
   14783:	cc                   	int3
   14784:	cc                   	int3
   14785:	cc                   	int3
   14786:	cc                   	int3
   14787:	cc                   	int3
   14788:	cc                   	int3
   14789:	cc                   	int3
   1478a:	cc                   	int3
   1478b:	cc                   	int3
   1478c:	cc                   	int3
   1478d:	cc                   	int3
   1478e:	cc                   	int3
   1478f:	cc                   	int3

0000000000014790 <_ZN4core10intrinsics11write_bytes18precondition_check17h1bcf6077f4fb9eb2E>:
   14790:	48 83 ec 68          	sub    rsp,0x68
   14794:	48 89 34 24          	mov    QWORD PTR [rsp],rsi
   14798:	48 89 7c 24 08       	mov    QWORD PTR [rsp+0x8],rdi
   1479d:	48 8d 05 dc 9f 02 00 	lea    rax,[rip+0x29fdc]        # 3e780 <memmove+0x1050>
   147a4:	48 89 44 24 10       	mov    QWORD PTR [rsp+0x10],rax
   147a9:	48 89 7c 24 48       	mov    QWORD PTR [rsp+0x48],rdi
   147ae:	48 89 74 24 50       	mov    QWORD PTR [rsp+0x50],rsi
   147b3:	48 89 7c 24 58       	mov    QWORD PTR [rsp+0x58],rdi
   147b8:	48 83 ff 00          	cmp    rdi,0x0
   147bc:	75 02                	jne    147c0 <_ZN4core10intrinsics11write_bytes18precondition_check17h1bcf6077f4fb9eb2E+0x30>
   147be:	eb 6a                	jmp    1482a <_ZN4core10intrinsics11write_bytes18precondition_check17h1bcf6077f4fb9eb2E+0x9a>
   147c0:	48 8b 0c 24          	mov    rcx,QWORD PTR [rsp]
   147c4:	48 89 c8             	mov    rax,rcx
   147c7:	48 d1 e8             	shr    rax,1
   147ca:	48 ba 55 55 55 55 55 	movabs rdx,0x5555555555555555
   147d1:	55 55 55 
   147d4:	48 21 d0             	and    rax,rdx
   147d7:	48 29 c1             	sub    rcx,rax
   147da:	48 ba 33 33 33 33 33 	movabs rdx,0x3333333333333333
   147e1:	33 33 33 
   147e4:	48 89 c8             	mov    rax,rcx
   147e7:	48 21 d0             	and    rax,rdx
   147ea:	48 c1 e9 02          	shr    rcx,0x2
   147ee:	48 21 d1             	and    rcx,rdx
   147f1:	48 01 c8             	add    rax,rcx
   147f4:	48 89 c1             	mov    rcx,rax
   147f7:	48 c1 e9 04          	shr    rcx,0x4
   147fb:	48 01 c8             	add    rax,rcx
   147fe:	48 b9 0f 0f 0f 0f 0f 	movabs rcx,0xf0f0f0f0f0f0f0f
   14805:	0f 0f 0f 
   14808:	48 21 c8             	and    rax,rcx
   1480b:	48 b9 01 01 01 01 01 	movabs rcx,0x101010101010101
   14812:	01 01 01 
   14815:	48 0f af c1          	imul   rax,rcx
   14819:	48 c1 e8 38          	shr    rax,0x38
   1481d:	89 44 24 64          	mov    DWORD PTR [rsp+0x64],eax
   14821:	83 7c 24 64 01       	cmp    DWORD PTR [rsp+0x64],0x1
   14826:	74 17                	je     1483f <_ZN4core10intrinsics11write_bytes18precondition_check17h1bcf6077f4fb9eb2E+0xaf>
   14828:	eb 2d                	jmp    14857 <_ZN4core10intrinsics11write_bytes18precondition_check17h1bcf6077f4fb9eb2E+0xc7>
   1482a:	48 8d 3d f3 9f ff ff 	lea    rdi,[rip+0xffffffffffff9ff3]        # e824 <_ZN6diy_os6serial7SERIAL117h2f329108989edb16E-0xfcf>
   14831:	48 8b 05 90 27 03 00 	mov    rax,QWORD PTR [rip+0x32790]        # 46fc8 <_DYNAMIC+0x130>
   14838:	be 6f 00 00 00       	mov    esi,0x6f
   1483d:	ff d0                	call   rax
   1483f:	48 8b 44 24 08       	mov    rax,QWORD PTR [rsp+0x8]
   14844:	48 8b 0c 24          	mov    rcx,QWORD PTR [rsp]
   14848:	48 83 e9 01          	sub    rcx,0x1
   1484c:	48 21 c8             	and    rax,rcx
   1484f:	48 83 f8 00          	cmp    rax,0x0
   14853:	74 56                	je     148ab <_ZN4core10intrinsics11write_bytes18precondition_check17h1bcf6077f4fb9eb2E+0x11b>
   14855:	eb d3                	jmp    1482a <_ZN4core10intrinsics11write_bytes18precondition_check17h1bcf6077f4fb9eb2E+0x9a>
   14857:	48 8d 05 22 9f 02 00 	lea    rax,[rip+0x29f22]        # 3e780 <memmove+0x1050>
   1485e:	48 89 44 24 18       	mov    QWORD PTR [rsp+0x18],rax
   14863:	48 c7 44 24 20 01 00 	mov    QWORD PTR [rsp+0x20],0x1
   1486a:	00 00 
   1486c:	48 8b 0d a5 a0 ff ff 	mov    rcx,QWORD PTR [rip+0xffffffffffffa0a5]        # e918 <_ZN6diy_os6serial7SERIAL117h2f329108989edb16E-0xedb>
   14873:	48 8b 05 a6 a0 ff ff 	mov    rax,QWORD PTR [rip+0xffffffffffffa0a6]        # e920 <_ZN6diy_os6serial7SERIAL117h2f329108989edb16E-0xed3>
   1487a:	48 89 4c 24 38       	mov    QWORD PTR [rsp+0x38],rcx
   1487f:	48 89 44 24 40       	mov    QWORD PTR [rsp+0x40],rax
   14884:	48 c7 44 24 28 08 00 	mov    QWORD PTR [rsp+0x28],0x8
   1488b:	00 00 
   1488d:	48 c7 44 24 30 00 00 	mov    QWORD PTR [rsp+0x30],0x0
   14894:	00 00 
   14896:	48 8d 35 f3 9e 02 00 	lea    rsi,[rip+0x29ef3]        # 3e790 <memmove+0x1060>
   1489d:	48 8b 05 2c 27 03 00 	mov    rax,QWORD PTR [rip+0x3272c]        # 46fd0 <_DYNAMIC+0x138>
   148a4:	48 8d 7c 24 18       	lea    rdi,[rsp+0x18]
   148a9:	ff d0                	call   rax
   148ab:	48 83 c4 68          	add    rsp,0x68
   148af:	c3                   	ret

00000000000148b0 <_ZN4core10intrinsics19copy_nonoverlapping18precondition_check17h85bb7cb28deb462cE>:
   148b0:	48 81 ec e8 00 00 00 	sub    rsp,0xe8
   148b7:	4c 89 04 24          	mov    QWORD PTR [rsp],r8
   148bb:	48 89 4c 24 08       	mov    QWORD PTR [rsp+0x8],rcx
   148c0:	48 89 54 24 10       	mov    QWORD PTR [rsp+0x10],rdx
   148c5:	48 89 74 24 18       	mov    QWORD PTR [rsp+0x18],rsi
   148ca:	48 89 7c 24 20       	mov    QWORD PTR [rsp+0x20],rdi
   148cf:	48 8d 05 aa 9e 02 00 	lea    rax,[rip+0x29eaa]        # 3e780 <memmove+0x1050>
   148d6:	48 89 44 24 28       	mov    QWORD PTR [rsp+0x28],rax
   148db:	48 89 44 24 30       	mov    QWORD PTR [rsp+0x30],rax
   148e0:	48 89 bc 24 98 00 00 	mov    QWORD PTR [rsp+0x98],rdi
   148e7:	00 
   148e8:	48 89 b4 24 a0 00 00 	mov    QWORD PTR [rsp+0xa0],rsi
   148ef:	00 
   148f0:	48 89 94 24 a8 00 00 	mov    QWORD PTR [rsp+0xa8],rdx
   148f7:	00 
   148f8:	48 89 8c 24 b0 00 00 	mov    QWORD PTR [rsp+0xb0],rcx
   148ff:	00 
   14900:	4c 89 84 24 b8 00 00 	mov    QWORD PTR [rsp+0xb8],r8
   14907:	00 
   14908:	48 89 bc 24 c0 00 00 	mov    QWORD PTR [rsp+0xc0],rdi
   1490f:	00 
   14910:	48 83 ff 00          	cmp    rdi,0x0
   14914:	75 02                	jne    14918 <_ZN4core10intrinsics19copy_nonoverlapping18precondition_check17h85bb7cb28deb462cE+0x68>
   14916:	eb 71                	jmp    14989 <_ZN4core10intrinsics19copy_nonoverlapping18precondition_check17h85bb7cb28deb462cE+0xd9>
   14918:	48 8b 4c 24 08       	mov    rcx,QWORD PTR [rsp+0x8]
   1491d:	48 89 c8             	mov    rax,rcx
   14920:	48 d1 e8             	shr    rax,1
   14923:	48 ba 55 55 55 55 55 	movabs rdx,0x5555555555555555
   1492a:	55 55 55 
   1492d:	48 21 d0             	and    rax,rdx
   14930:	48 29 c1             	sub    rcx,rax
   14933:	48 ba 33 33 33 33 33 	movabs rdx,0x3333333333333333
   1493a:	33 33 33 
   1493d:	48 89 c8             	mov    rax,rcx
   14940:	48 21 d0             	and    rax,rdx
   14943:	48 c1 e9 02          	shr    rcx,0x2
   14947:	48 21 d1             	and    rcx,rdx
   1494a:	48 01 c8             	add    rax,rcx
   1494d:	48 89 c1             	mov    rcx,rax
   14950:	48 c1 e9 04          	shr    rcx,0x4
   14954:	48 01 c8             	add    rax,rcx
   14957:	48 b9 0f 0f 0f 0f 0f 	movabs rcx,0xf0f0f0f0f0f0f0f
   1495e:	0f 0f 0f 
   14961:	48 21 c8             	and    rax,rcx
   14964:	48 b9 01 01 01 01 01 	movabs rcx,0x101010101010101
   1496b:	01 01 01 
   1496e:	48 0f af c1          	imul   rax,rcx
   14972:	48 c1 e8 38          	shr    rax,0x38
   14976:	89 84 24 cc 00 00 00 	mov    DWORD PTR [rsp+0xcc],eax
   1497d:	83 bc 24 cc 00 00 00 	cmp    DWORD PTR [rsp+0xcc],0x1
   14984:	01 
   14985:	74 07                	je     1498e <_ZN4core10intrinsics19copy_nonoverlapping18precondition_check17h85bb7cb28deb462cE+0xde>
   14987:	eb 1e                	jmp    149a7 <_ZN4core10intrinsics19copy_nonoverlapping18precondition_check17h85bb7cb28deb462cE+0xf7>
   14989:	e9 8a 00 00 00       	jmp    14a18 <_ZN4core10intrinsics19copy_nonoverlapping18precondition_check17h85bb7cb28deb462cE+0x168>
   1498e:	48 8b 44 24 20       	mov    rax,QWORD PTR [rsp+0x20]
   14993:	48 8b 4c 24 08       	mov    rcx,QWORD PTR [rsp+0x8]
   14998:	48 83 e9 01          	sub    rcx,0x1
   1499c:	48 21 c8             	and    rax,rcx
   1499f:	48 83 f8 00          	cmp    rax,0x0
   149a3:	74 56                	je     149fb <_ZN4core10intrinsics19copy_nonoverlapping18precondition_check17h85bb7cb28deb462cE+0x14b>
   149a5:	eb e2                	jmp    14989 <_ZN4core10intrinsics19copy_nonoverlapping18precondition_check17h85bb7cb28deb462cE+0xd9>
   149a7:	48 8d 05 d2 9d 02 00 	lea    rax,[rip+0x29dd2]        # 3e780 <memmove+0x1050>
   149ae:	48 89 44 24 38       	mov    QWORD PTR [rsp+0x38],rax
   149b3:	48 c7 44 24 40 01 00 	mov    QWORD PTR [rsp+0x40],0x1
   149ba:	00 00 
   149bc:	48 8b 0d 55 9f ff ff 	mov    rcx,QWORD PTR [rip+0xffffffffffff9f55]        # e918 <_ZN6diy_os6serial7SERIAL117h2f329108989edb16E-0xedb>
   149c3:	48 8b 05 56 9f ff ff 	mov    rax,QWORD PTR [rip+0xffffffffffff9f56]        # e920 <_ZN6diy_os6serial7SERIAL117h2f329108989edb16E-0xed3>
   149ca:	48 89 4c 24 58       	mov    QWORD PTR [rsp+0x58],rcx
   149cf:	48 89 44 24 60       	mov    QWORD PTR [rsp+0x60],rax
   149d4:	48 c7 44 24 48 08 00 	mov    QWORD PTR [rsp+0x48],0x8
   149db:	00 00 
   149dd:	48 c7 44 24 50 00 00 	mov    QWORD PTR [rsp+0x50],0x0
   149e4:	00 00 
   149e6:	48 8d 35 a3 9d 02 00 	lea    rsi,[rip+0x29da3]        # 3e790 <memmove+0x1060>
   149ed:	48 8b 05 dc 25 03 00 	mov    rax,QWORD PTR [rip+0x325dc]        # 46fd0 <_DYNAMIC+0x138>
   149f4:	48 8d 7c 24 38       	lea    rdi,[rsp+0x38]
   149f9:	ff d0                	call   rax
   149fb:	48 8b 44 24 18       	mov    rax,QWORD PTR [rsp+0x18]
   14a00:	48 89 84 24 d0 00 00 	mov    QWORD PTR [rsp+0xd0],rax
   14a07:	00 
   14a08:	48 89 84 24 d8 00 00 	mov    QWORD PTR [rsp+0xd8],rax
   14a0f:	00 
   14a10:	48 83 f8 00          	cmp    rax,0x0
   14a14:	74 17                	je     14a2d <_ZN4core10intrinsics19copy_nonoverlapping18precondition_check17h85bb7cb28deb462cE+0x17d>
   14a16:	eb 17                	jmp    14a2f <_ZN4core10intrinsics19copy_nonoverlapping18precondition_check17h85bb7cb28deb462cE+0x17f>
   14a18:	48 8d 3d 8a 9f ff ff 	lea    rdi,[rip+0xffffffffffff9f8a]        # e9a9 <_ZN6diy_os6serial7SERIAL117h2f329108989edb16E-0xe4a>
   14a1f:	48 8b 05 a2 25 03 00 	mov    rax,QWORD PTR [rip+0x325a2]        # 46fc8 <_DYNAMIC+0x130>
   14a26:	be a6 00 00 00       	mov    esi,0xa6
   14a2b:	ff d0                	call   rax
   14a2d:	eb 71                	jmp    14aa0 <_ZN4core10intrinsics19copy_nonoverlapping18precondition_check17h85bb7cb28deb462cE+0x1f0>
   14a2f:	48 8b 4c 24 08       	mov    rcx,QWORD PTR [rsp+0x8]
   14a34:	48 89 c8             	mov    rax,rcx
   14a37:	48 d1 e8             	shr    rax,1
   14a3a:	48 ba 55 55 55 55 55 	movabs rdx,0x5555555555555555
   14a41:	55 55 55 
   14a44:	48 21 d0             	and    rax,rdx
   14a47:	48 29 c1             	sub    rcx,rax
   14a4a:	48 ba 33 33 33 33 33 	movabs rdx,0x3333333333333333
   14a51:	33 33 33 
   14a54:	48 89 c8             	mov    rax,rcx
   14a57:	48 21 d0             	and    rax,rdx
   14a5a:	48 c1 e9 02          	shr    rcx,0x2
   14a5e:	48 21 d1             	and    rcx,rdx
   14a61:	48 01 c8             	add    rax,rcx
   14a64:	48 89 c1             	mov    rcx,rax
   14a67:	48 c1 e9 04          	shr    rcx,0x4
   14a6b:	48 01 c8             	add    rax,rcx
   14a6e:	48 b9 0f 0f 0f 0f 0f 	movabs rcx,0xf0f0f0f0f0f0f0f
   14a75:	0f 0f 0f 
   14a78:	48 21 c8             	and    rax,rcx
   14a7b:	48 b9 01 01 01 01 01 	movabs rcx,0x101010101010101
   14a82:	01 01 01 
   14a85:	48 0f af c1          	imul   rax,rcx
   14a89:	48 c1 e8 38          	shr    rax,0x38
   14a8d:	89 84 24 e4 00 00 00 	mov    DWORD PTR [rsp+0xe4],eax
   14a94:	83 bc 24 e4 00 00 00 	cmp    DWORD PTR [rsp+0xe4],0x1
   14a9b:	01 
   14a9c:	74 07                	je     14aa5 <_ZN4core10intrinsics19copy_nonoverlapping18precondition_check17h85bb7cb28deb462cE+0x1f5>
   14a9e:	eb 1e                	jmp    14abe <_ZN4core10intrinsics19copy_nonoverlapping18precondition_check17h85bb7cb28deb462cE+0x20e>
   14aa0:	e9 73 ff ff ff       	jmp    14a18 <_ZN4core10intrinsics19copy_nonoverlapping18precondition_check17h85bb7cb28deb462cE+0x168>
   14aa5:	48 8b 44 24 18       	mov    rax,QWORD PTR [rsp+0x18]
   14aaa:	48 8b 4c 24 08       	mov    rcx,QWORD PTR [rsp+0x8]
   14aaf:	48 83 e9 01          	sub    rcx,0x1
   14ab3:	48 21 c8             	and    rax,rcx
   14ab6:	48 83 f8 00          	cmp    rax,0x0
   14aba:	74 5f                	je     14b1b <_ZN4core10intrinsics19copy_nonoverlapping18precondition_check17h85bb7cb28deb462cE+0x26b>
   14abc:	eb e2                	jmp    14aa0 <_ZN4core10intrinsics19copy_nonoverlapping18precondition_check17h85bb7cb28deb462cE+0x1f0>
   14abe:	48 8d 05 bb 9c 02 00 	lea    rax,[rip+0x29cbb]        # 3e780 <memmove+0x1050>
   14ac5:	48 89 44 24 68       	mov    QWORD PTR [rsp+0x68],rax
   14aca:	48 c7 44 24 70 01 00 	mov    QWORD PTR [rsp+0x70],0x1
   14ad1:	00 00 
   14ad3:	48 8b 0d 3e 9e ff ff 	mov    rcx,QWORD PTR [rip+0xffffffffffff9e3e]        # e918 <_ZN6diy_os6serial7SERIAL117h2f329108989edb16E-0xedb>
   14ada:	48 8b 05 3f 9e ff ff 	mov    rax,QWORD PTR [rip+0xffffffffffff9e3f]        # e920 <_ZN6diy_os6serial7SERIAL117h2f329108989edb16E-0xed3>
   14ae1:	48 89 8c 24 88 00 00 	mov    QWORD PTR [rsp+0x88],rcx
   14ae8:	00 
   14ae9:	48 89 84 24 90 00 00 	mov    QWORD PTR [rsp+0x90],rax
   14af0:	00 
   14af1:	48 c7 44 24 78 08 00 	mov    QWORD PTR [rsp+0x78],0x8
   14af8:	00 00 
   14afa:	48 c7 84 24 80 00 00 	mov    QWORD PTR [rsp+0x80],0x0
   14b01:	00 00 00 00 00 
   14b06:	48 8d 35 83 9c 02 00 	lea    rsi,[rip+0x29c83]        # 3e790 <memmove+0x1060>
   14b0d:	48 8b 05 bc 24 03 00 	mov    rax,QWORD PTR [rip+0x324bc]        # 46fd0 <_DYNAMIC+0x138>
   14b14:	48 8d 7c 24 68       	lea    rdi,[rsp+0x68]
   14b19:	ff d0                	call   rax
   14b1b:	48 8b 0c 24          	mov    rcx,QWORD PTR [rsp]
   14b1f:	48 8b 54 24 10       	mov    rdx,QWORD PTR [rsp+0x10]
   14b24:	48 8b 74 24 18       	mov    rsi,QWORD PTR [rsp+0x18]
   14b29:	48 8b 7c 24 20       	mov    rdi,QWORD PTR [rsp+0x20]
   14b2e:	e8 3d 4b 00 00       	call   19670 <_ZN4core9ub_checks17is_nonoverlapping7runtime17he21fc74dff9ef5b9E>
   14b33:	a8 01                	test   al,0x1
   14b35:	75 05                	jne    14b3c <_ZN4core10intrinsics19copy_nonoverlapping18precondition_check17h85bb7cb28deb462cE+0x28c>
   14b37:	e9 dc fe ff ff       	jmp    14a18 <_ZN4core10intrinsics19copy_nonoverlapping18precondition_check17h85bb7cb28deb462cE+0x168>
   14b3c:	48 81 c4 e8 00 00 00 	add    rsp,0xe8
   14b43:	c3                   	ret
   14b44:	cc                   	int3
   14b45:	cc                   	int3
   14b46:	cc                   	int3
   14b47:	cc                   	int3
   14b48:	cc                   	int3
   14b49:	cc                   	int3
   14b4a:	cc                   	int3
   14b4b:	cc                   	int3
   14b4c:	cc                   	int3
   14b4d:	cc                   	int3
   14b4e:	cc                   	int3
   14b4f:	cc                   	int3

0000000000014b50 <_ZN76_$LT$core..marker..PhantomData$LT$T$GT$$u20$as$u20$core..cmp..PartialOrd$GT$11partial_cmp17hfea7ffd388836441E>:
   14b50:	48 83 ec 10          	sub    rsp,0x10
   14b54:	48 89 3c 24          	mov    QWORD PTR [rsp],rdi
   14b58:	48 89 74 24 08       	mov    QWORD PTR [rsp+0x8],rsi
   14b5d:	31 c0                	xor    eax,eax
   14b5f:	48 83 c4 10          	add    rsp,0x10
   14b63:	c3                   	ret
   14b64:	cc                   	int3
   14b65:	cc                   	int3
   14b66:	cc                   	int3
   14b67:	cc                   	int3
   14b68:	cc                   	int3
   14b69:	cc                   	int3
   14b6a:	cc                   	int3
   14b6b:	cc                   	int3
   14b6c:	cc                   	int3
   14b6d:	cc                   	int3
   14b6e:	cc                   	int3
   14b6f:	cc                   	int3

0000000000014b70 <_ZN14bootloader_api4info17Optional$LT$T$GT$11into_option17heb1209033c24b08eE>:
   14b70:	48 83 ec 18          	sub    rsp,0x18
   14b74:	89 7c 24 08          	mov    DWORD PTR [rsp+0x8],edi
   14b78:	48 89 74 24 10       	mov    QWORD PTR [rsp+0x10],rsi
   14b7d:	48 8d 15 24 9c 02 00 	lea    rdx,[rip+0x29c24]        # 3e7a8 <memmove+0x1078>
   14b84:	e8 07 00 00 00       	call   14b90 <_ZN50_$LT$T$u20$as$u20$core..convert..Into$LT$U$GT$$GT$4into17h660385ed49b23409E>
   14b89:	48 83 c4 18          	add    rsp,0x18
   14b8d:	c3                   	ret
   14b8e:	cc                   	int3
   14b8f:	cc                   	int3

0000000000014b90 <_ZN50_$LT$T$u20$as$u20$core..convert..Into$LT$U$GT$$GT$4into17h660385ed49b23409E>:
   14b90:	48 83 ec 18          	sub    rsp,0x18
   14b94:	89 7c 24 08          	mov    DWORD PTR [rsp+0x8],edi
   14b98:	48 89 74 24 10       	mov    QWORD PTR [rsp+0x10],rsi
   14b9d:	e8 ce 21 00 00       	call   16d70 <_ZN14bootloader_api4info126_$LT$impl$u20$core..convert..From$LT$bootloader_api..info..Optional$LT$T$GT$$GT$$u20$for$u20$core..option..Option$LT$T$GT$$GT$4from17h254c08142338c888E>
   14ba2:	48 83 c4 18          	add    rsp,0x18
   14ba6:	c3                   	ret
   14ba7:	cc                   	int3
   14ba8:	cc                   	int3
   14ba9:	cc                   	int3
   14baa:	cc                   	int3
   14bab:	cc                   	int3
   14bac:	cc                   	int3
   14bad:	cc                   	int3
   14bae:	cc                   	int3
   14baf:	cc                   	int3

0000000000014bb0 <_ZN4core5slice3raw14from_raw_parts18precondition_check17h33f4ff0a6db81fd0E>:
   14bb0:	48 81 ec a8 00 00 00 	sub    rsp,0xa8
   14bb7:	48 89 4c 24 10       	mov    QWORD PTR [rsp+0x10],rcx
   14bbc:	48 89 54 24 18       	mov    QWORD PTR [rsp+0x18],rdx
   14bc1:	48 89 74 24 20       	mov    QWORD PTR [rsp+0x20],rsi
   14bc6:	48 89 7c 24 28       	mov    QWORD PTR [rsp+0x28],rdi
   14bcb:	48 8d 05 ee 9b 02 00 	lea    rax,[rip+0x29bee]        # 3e7c0 <memmove+0x1090>
   14bd2:	48 89 44 24 30       	mov    QWORD PTR [rsp+0x30],rax
   14bd7:	48 89 7c 24 70       	mov    QWORD PTR [rsp+0x70],rdi
   14bdc:	48 89 74 24 78       	mov    QWORD PTR [rsp+0x78],rsi
   14be1:	48 89 94 24 80 00 00 	mov    QWORD PTR [rsp+0x80],rdx
   14be8:	00 
   14be9:	48 89 8c 24 88 00 00 	mov    QWORD PTR [rsp+0x88],rcx
   14bf0:	00 
   14bf1:	48 89 bc 24 90 00 00 	mov    QWORD PTR [rsp+0x90],rdi
   14bf8:	00 
   14bf9:	48 89 bc 24 98 00 00 	mov    QWORD PTR [rsp+0x98],rdi
   14c00:	00 
   14c01:	48 83 ff 00          	cmp    rdi,0x0
   14c05:	75 02                	jne    14c09 <_ZN4core5slice3raw14from_raw_parts18precondition_check17h33f4ff0a6db81fd0E+0x59>
   14c07:	eb 71                	jmp    14c7a <_ZN4core5slice3raw14from_raw_parts18precondition_check17h33f4ff0a6db81fd0E+0xca>
   14c09:	48 8b 4c 24 18       	mov    rcx,QWORD PTR [rsp+0x18]
   14c0e:	48 89 c8             	mov    rax,rcx
   14c11:	48 d1 e8             	shr    rax,1
   14c14:	48 ba 55 55 55 55 55 	movabs rdx,0x5555555555555555
   14c1b:	55 55 55 
   14c1e:	48 21 d0             	and    rax,rdx
   14c21:	48 29 c1             	sub    rcx,rax
   14c24:	48 ba 33 33 33 33 33 	movabs rdx,0x3333333333333333
   14c2b:	33 33 33 
   14c2e:	48 89 c8             	mov    rax,rcx
   14c31:	48 21 d0             	and    rax,rdx
   14c34:	48 c1 e9 02          	shr    rcx,0x2
   14c38:	48 21 d1             	and    rcx,rdx
   14c3b:	48 01 c8             	add    rax,rcx
   14c3e:	48 89 c1             	mov    rcx,rax
   14c41:	48 c1 e9 04          	shr    rcx,0x4
   14c45:	48 01 c8             	add    rax,rcx
   14c48:	48 b9 0f 0f 0f 0f 0f 	movabs rcx,0xf0f0f0f0f0f0f0f
   14c4f:	0f 0f 0f 
   14c52:	48 21 c8             	and    rax,rcx
   14c55:	48 b9 01 01 01 01 01 	movabs rcx,0x101010101010101
   14c5c:	01 01 01 
   14c5f:	48 0f af c1          	imul   rax,rcx
   14c63:	48 c1 e8 38          	shr    rax,0x38
   14c67:	89 84 24 a4 00 00 00 	mov    DWORD PTR [rsp+0xa4],eax
   14c6e:	83 bc 24 a4 00 00 00 	cmp    DWORD PTR [rsp+0xa4],0x1
   14c75:	01 
   14c76:	74 07                	je     14c7f <_ZN4core5slice3raw14from_raw_parts18precondition_check17h33f4ff0a6db81fd0E+0xcf>
   14c78:	eb 1e                	jmp    14c98 <_ZN4core5slice3raw14from_raw_parts18precondition_check17h33f4ff0a6db81fd0E+0xe8>
   14c7a:	e9 85 00 00 00       	jmp    14d04 <_ZN4core5slice3raw14from_raw_parts18precondition_check17h33f4ff0a6db81fd0E+0x154>
   14c7f:	48 8b 44 24 28       	mov    rax,QWORD PTR [rsp+0x28]
   14c84:	48 8b 4c 24 18       	mov    rcx,QWORD PTR [rsp+0x18]
   14c89:	48 83 e9 01          	sub    rcx,0x1
   14c8d:	48 21 c8             	and    rax,rcx
   14c90:	48 83 f8 00          	cmp    rax,0x0
   14c94:	74 56                	je     14cec <_ZN4core5slice3raw14from_raw_parts18precondition_check17h33f4ff0a6db81fd0E+0x13c>
   14c96:	eb e2                	jmp    14c7a <_ZN4core5slice3raw14from_raw_parts18precondition_check17h33f4ff0a6db81fd0E+0xca>
   14c98:	48 8d 05 21 9b 02 00 	lea    rax,[rip+0x29b21]        # 3e7c0 <memmove+0x1090>
   14c9f:	48 89 44 24 38       	mov    QWORD PTR [rsp+0x38],rax
   14ca4:	48 c7 44 24 40 01 00 	mov    QWORD PTR [rsp+0x40],0x1
   14cab:	00 00 
   14cad:	48 8b 0d 64 9c ff ff 	mov    rcx,QWORD PTR [rip+0xffffffffffff9c64]        # e918 <_ZN6diy_os6serial7SERIAL117h2f329108989edb16E-0xedb>
   14cb4:	48 8b 05 65 9c ff ff 	mov    rax,QWORD PTR [rip+0xffffffffffff9c65]        # e920 <_ZN6diy_os6serial7SERIAL117h2f329108989edb16E-0xed3>
   14cbb:	48 89 4c 24 58       	mov    QWORD PTR [rsp+0x58],rcx
   14cc0:	48 89 44 24 60       	mov    QWORD PTR [rsp+0x60],rax
   14cc5:	48 c7 44 24 48 08 00 	mov    QWORD PTR [rsp+0x48],0x8
   14ccc:	00 00 
   14cce:	48 c7 44 24 50 00 00 	mov    QWORD PTR [rsp+0x50],0x0
   14cd5:	00 00 
   14cd7:	48 8d 35 0a 9b 02 00 	lea    rsi,[rip+0x29b0a]        # 3e7e8 <memmove+0x10b8>
   14cde:	48 8b 05 eb 22 03 00 	mov    rax,QWORD PTR [rip+0x322eb]        # 46fd0 <_DYNAMIC+0x138>
   14ce5:	48 8d 7c 24 38       	lea    rdi,[rsp+0x38]
   14cea:	ff d0                	call   rax
   14cec:	48 8b 44 24 20       	mov    rax,QWORD PTR [rsp+0x20]
   14cf1:	48 83 f8 00          	cmp    rax,0x0
   14cf5:	0f 94 c1             	sete   cl
   14cf8:	88 4c 24 0f          	mov    BYTE PTR [rsp+0xf],cl
   14cfc:	48 83 f8 00          	cmp    rax,0x0
   14d00:	74 17                	je     14d19 <_ZN4core5slice3raw14from_raw_parts18precondition_check17h33f4ff0a6db81fd0E+0x169>
   14d02:	eb 20                	jmp    14d24 <_ZN4core5slice3raw14from_raw_parts18precondition_check17h33f4ff0a6db81fd0E+0x174>
   14d04:	48 8d 3d 1c 9e ff ff 	lea    rdi,[rip+0xffffffffffff9e1c]        # eb27 <_ZN6diy_os6serial7SERIAL117h2f329108989edb16E-0xccc>
   14d0b:	48 8b 05 b6 22 03 00 	mov    rax,QWORD PTR [rip+0x322b6]        # 46fc8 <_DYNAMIC+0x130>
   14d12:	be a2 00 00 00       	mov    esi,0xa2
   14d17:	ff d0                	call   rax
   14d19:	48 c7 44 24 68 ff ff 	mov    QWORD PTR [rsp+0x68],0xffffffffffffffff
   14d20:	ff ff 
   14d22:	eb 0a                	jmp    14d2e <_ZN4core5slice3raw14from_raw_parts18precondition_check17h33f4ff0a6db81fd0E+0x17e>
   14d24:	8a 44 24 0f          	mov    al,BYTE PTR [rsp+0xf]
   14d28:	a8 01                	test   al,0x1
   14d2a:	75 2b                	jne    14d57 <_ZN4core5slice3raw14from_raw_parts18precondition_check17h33f4ff0a6db81fd0E+0x1a7>
   14d2c:	eb 0e                	jmp    14d3c <_ZN4core5slice3raw14from_raw_parts18precondition_check17h33f4ff0a6db81fd0E+0x18c>
   14d2e:	48 8b 44 24 10       	mov    rax,QWORD PTR [rsp+0x10]
   14d33:	48 3b 44 24 68       	cmp    rax,QWORD PTR [rsp+0x68]
   14d38:	76 2f                	jbe    14d69 <_ZN4core5slice3raw14from_raw_parts18precondition_check17h33f4ff0a6db81fd0E+0x1b9>
   14d3a:	eb 2b                	jmp    14d67 <_ZN4core5slice3raw14from_raw_parts18precondition_check17h33f4ff0a6db81fd0E+0x1b7>
   14d3c:	48 8b 4c 24 20       	mov    rcx,QWORD PTR [rsp+0x20]
   14d41:	48 b8 ff ff ff ff ff 	movabs rax,0x7fffffffffffffff
   14d48:	ff ff 7f 
   14d4b:	31 d2                	xor    edx,edx
   14d4d:	48 f7 f1             	div    rcx
   14d50:	48 89 44 24 68       	mov    QWORD PTR [rsp+0x68],rax
   14d55:	eb d7                	jmp    14d2e <_ZN4core5slice3raw14from_raw_parts18precondition_check17h33f4ff0a6db81fd0E+0x17e>
   14d57:	48 8d 3d 72 9a 02 00 	lea    rdi,[rip+0x29a72]        # 3e7d0 <memmove+0x10a0>
   14d5e:	48 8b 05 73 22 03 00 	mov    rax,QWORD PTR [rip+0x32273]        # 46fd8 <_DYNAMIC+0x140>
   14d65:	ff d0                	call   rax
   14d67:	eb 9b                	jmp    14d04 <_ZN4core5slice3raw14from_raw_parts18precondition_check17h33f4ff0a6db81fd0E+0x154>
   14d69:	48 81 c4 a8 00 00 00 	add    rsp,0xa8
   14d70:	c3                   	ret
   14d71:	cc                   	int3
   14d72:	cc                   	int3
   14d73:	cc                   	int3
   14d74:	cc                   	int3
   14d75:	cc                   	int3
   14d76:	cc                   	int3
   14d77:	cc                   	int3
   14d78:	cc                   	int3
   14d79:	cc                   	int3
   14d7a:	cc                   	int3
   14d7b:	cc                   	int3
   14d7c:	cc                   	int3
   14d7d:	cc                   	int3
   14d7e:	cc                   	int3
   14d7f:	cc                   	int3

0000000000014d80 <_ZN4core3cmp5impls55_$LT$impl$u20$core..cmp..PartialOrd$u20$for$u20$u64$GT$11partial_cmp17h814063922f7e055dE>:
   14d80:	48 83 ec 18          	sub    rsp,0x18
   14d84:	48 89 7c 24 08       	mov    QWORD PTR [rsp+0x8],rdi
   14d89:	48 89 74 24 10       	mov    QWORD PTR [rsp+0x10],rsi
   14d8e:	48 8b 0f             	mov    rcx,QWORD PTR [rdi]
   14d91:	48 8b 16             	mov    rdx,QWORD PTR [rsi]
   14d94:	48 39 d1             	cmp    rcx,rdx
   14d97:	0f 97 c0             	seta   al
   14d9a:	24 01                	and    al,0x1
   14d9c:	48 39 d1             	cmp    rcx,rdx
   14d9f:	0f 92 c1             	setb   cl
   14da2:	80 e1 01             	and    cl,0x1
   14da5:	28 c8                	sub    al,cl
   14da7:	88 44 24 07          	mov    BYTE PTR [rsp+0x7],al
   14dab:	8a 44 24 07          	mov    al,BYTE PTR [rsp+0x7]
   14daf:	48 83 c4 18          	add    rsp,0x18
   14db3:	c3                   	ret
   14db4:	cc                   	int3
   14db5:	cc                   	int3
   14db6:	cc                   	int3
   14db7:	cc                   	int3
   14db8:	cc                   	int3
   14db9:	cc                   	int3
   14dba:	cc                   	int3
   14dbb:	cc                   	int3
   14dbc:	cc                   	int3
   14dbd:	cc                   	int3
   14dbe:	cc                   	int3
   14dbf:	cc                   	int3

0000000000014dc0 <_ZN6x86_6410structures6paging4page4Page8p1_index17hcadf512f70c67d22E>:
   14dc0:	48 83 ec 18          	sub    rsp,0x18
   14dc4:	48 89 7c 24 10       	mov    QWORD PTR [rsp+0x10],rdi
   14dc9:	48 8b 44 24 10       	mov    rax,QWORD PTR [rsp+0x10]
   14dce:	48 89 44 24 08       	mov    QWORD PTR [rsp+0x8],rax
   14dd3:	48 8b 7c 24 08       	mov    rdi,QWORD PTR [rsp+0x8]
   14dd8:	e8 03 24 00 00       	call   171e0 <_ZN6x86_644addr8VirtAddr8p1_index17h40b4a4e94b636fdcE>
   14ddd:	48 83 c4 18          	add    rsp,0x18
   14de1:	c3                   	ret
   14de2:	cc                   	int3
   14de3:	cc                   	int3
   14de4:	cc                   	int3
   14de5:	cc                   	int3
   14de6:	cc                   	int3
   14de7:	cc                   	int3
   14de8:	cc                   	int3
   14de9:	cc                   	int3
   14dea:	cc                   	int3
   14deb:	cc                   	int3
   14dec:	cc                   	int3
   14ded:	cc                   	int3
   14dee:	cc                   	int3
   14def:	cc                   	int3

0000000000014df0 <main>:
   14df0:	48 81 ec f8 00 00 00 	sub    rsp,0xf8
   14df7:	48 89 7c 24 20       	mov    QWORD PTR [rsp+0x20],rdi
   14dfc:	48 8b 7c 24 20       	mov    rdi,QWORD PTR [rsp+0x20]
   14e01:	48 8b 05 d8 21 03 00 	mov    rax,QWORD PTR [rip+0x321d8]        # 46fe0 <_DYNAMIC+0x148>
   14e08:	ff d0                	call   rax
   14e0a:	48 89 44 24 20       	mov    QWORD PTR [rsp+0x20],rax
   14e0f:	48 8b 44 24 20       	mov    rax,QWORD PTR [rsp+0x20]
   14e14:	8b 78 58             	mov    edi,DWORD PTR [rax+0x58]
   14e17:	48 8b 70 60          	mov    rsi,QWORD PTR [rax+0x60]
   14e1b:	e8 50 fd ff ff       	call   14b70 <_ZN14bootloader_api4info17Optional$LT$T$GT$11into_option17heb1209033c24b08eE>
   14e20:	48 89 84 24 e0 00 00 	mov    QWORD PTR [rsp+0xe0],rax
   14e27:	00 
   14e28:	48 89 94 24 e8 00 00 	mov    QWORD PTR [rsp+0xe8],rdx
   14e2f:	00 
   14e30:	48 83 bc 24 e0 00 00 	cmp    QWORD PTR [rsp+0xe0],0x0
   14e37:	00 00 
   14e39:	75 10                	jne    14e4b <main+0x5b>
   14e3b:	48 8d 3d be 99 02 00 	lea    rdi,[rip+0x299be]        # 3e800 <memmove+0x10d0>
   14e42:	48 8b 05 9f 21 03 00 	mov    rax,QWORD PTR [rip+0x3219f]        # 46fe8 <_DYNAMIC+0x150>
   14e49:	ff d0                	call   rax
   14e4b:	48 8b bc 24 e8 00 00 	mov    rdi,QWORD PTR [rsp+0xe8]
   14e52:	00 
   14e53:	48 89 bc 24 f0 00 00 	mov    QWORD PTR [rsp+0xf0],rdi
   14e5a:	00 
   14e5b:	e8 c0 22 00 00       	call   17120 <_ZN6x86_644addr8VirtAddr3new17h22d75717f908b84fE>
   14e60:	48 89 44 24 18       	mov    QWORD PTR [rsp+0x18],rax
   14e65:	48 89 84 24 b0 00 00 	mov    QWORD PTR [rsp+0xb0],rax
   14e6c:	00 
   14e6d:	48 8b 7c 24 20       	mov    rdi,QWORD PTR [rsp+0x20]
   14e72:	48 83 c7 08          	add    rdi,0x8
   14e76:	48 8b 05 73 21 03 00 	mov    rax,QWORD PTR [rip+0x32173]        # 46ff0 <_DYNAMIC+0x158>
   14e7d:	ff d0                	call   rax
   14e7f:	48 8b 7c 24 18       	mov    rdi,QWORD PTR [rsp+0x18]
   14e84:	48 89 44 24 28       	mov    QWORD PTR [rsp+0x28],rax
   14e89:	48 89 54 24 30       	mov    QWORD PTR [rsp+0x30],rdx
   14e8e:	48 8b 05 63 21 03 00 	mov    rax,QWORD PTR [rip+0x32163]        # 46ff8 <_DYNAMIC+0x160>
   14e95:	ff d0                	call   rax
   14e97:	48 89 44 24 38       	mov    QWORD PTR [rsp+0x38],rax
   14e9c:	48 89 54 24 40       	mov    QWORD PTR [rsp+0x40],rdx
   14ea1:	48 8d 7c 24 48       	lea    rdi,[rsp+0x48]
   14ea6:	48 8d 74 24 38       	lea    rsi,[rsp+0x38]
   14eab:	48 8d 54 24 28       	lea    rdx,[rsp+0x28]
   14eb0:	e8 bb 48 00 00       	call   19770 <_ZN6diy_os9allocator10setup_heap17hb06ecbe85f6dc28aE>
   14eb5:	48 8d 35 70 9d ff ff 	lea    rsi,[rip+0xffffffffffff9d70]        # ec2c <_ZN6diy_os6serial7SERIAL117h2f329108989edb16E-0xbc7>
   14ebc:	48 8d 0d 55 99 02 00 	lea    rcx,[rip+0x29955]        # 3e818 <memmove+0x10e8>
   14ec3:	48 8d 7c 24 48       	lea    rdi,[rsp+0x48]
   14ec8:	ba 1b 00 00 00       	mov    edx,0x1b
   14ecd:	e8 ce 2c 00 00       	call   17ba0 <_ZN4core6result19Result$LT$T$C$E$GT$6expect17h85518f4880f32220E>
   14ed2:	48 8b 44 24 20       	mov    rax,QWORD PTR [rsp+0x20]
   14ed7:	8b b8 a0 00 00 00    	mov    edi,DWORD PTR [rax+0xa0]
   14edd:	48 8b b0 a8 00 00 00 	mov    rsi,QWORD PTR [rax+0xa8]
   14ee4:	e8 87 fc ff ff       	call   14b70 <_ZN14bootloader_api4info17Optional$LT$T$GT$11into_option17heb1209033c24b08eE>
   14ee9:	48 89 84 24 c8 00 00 	mov    QWORD PTR [rsp+0xc8],rax
   14ef0:	00 
   14ef1:	48 89 94 24 d0 00 00 	mov    QWORD PTR [rsp+0xd0],rdx
   14ef8:	00 
   14ef9:	48 83 bc 24 c8 00 00 	cmp    QWORD PTR [rsp+0xc8],0x0
   14f00:	00 00 
   14f02:	75 10                	jne    14f14 <main+0x124>
   14f04:	48 8d 3d 25 99 02 00 	lea    rdi,[rip+0x29925]        # 3e830 <memmove+0x1100>
   14f0b:	48 8b 05 d6 20 03 00 	mov    rax,QWORD PTR [rip+0x320d6]        # 46fe8 <_DYNAMIC+0x150>
   14f12:	ff d0                	call   rax
   14f14:	48 8b bc 24 d0 00 00 	mov    rdi,QWORD PTR [rsp+0xd0]
   14f1b:	00 
   14f1c:	48 89 bc 24 d8 00 00 	mov    QWORD PTR [rsp+0xd8],rdi
   14f23:	00 
   14f24:	48 89 bc 24 b8 00 00 	mov    QWORD PTR [rsp+0xb8],rdi
   14f2b:	00 
   14f2c:	48 8b 05 cd 20 03 00 	mov    rax,QWORD PTR [rip+0x320cd]        # 47000 <_DYNAMIC+0x168>
   14f33:	ff d0                	call   rax
   14f35:	48 89 44 24 58       	mov    QWORD PTR [rsp+0x58],rax
   14f3a:	48 8d 35 07 99 02 00 	lea    rsi,[rip+0x29907]        # 3e848 <memmove+0x1118>
   14f41:	48 8b 05 c0 20 03 00 	mov    rax,QWORD PTR [rip+0x320c0]        # 47008 <_DYNAMIC+0x170>
   14f48:	48 8d 7c 24 60       	lea    rdi,[rsp+0x60]
   14f4d:	48 89 7c 24 08       	mov    QWORD PTR [rsp+0x8],rdi
   14f52:	48 8d 94 24 90 00 00 	lea    rdx,[rsp+0x90]
   14f59:	00 
   14f5a:	ff d0                	call   rax
   14f5c:	48 8b 7c 24 08       	mov    rdi,QWORD PTR [rsp+0x8]
   14f61:	48 8b 05 a8 20 03 00 	mov    rax,QWORD PTR [rip+0x320a8]        # 47010 <_DYNAMIC+0x178>
   14f68:	ff d0                	call   rax
   14f6a:	48 8b 05 a7 20 03 00 	mov    rax,QWORD PTR [rip+0x320a7]        # 47018 <_DYNAMIC+0x180>
   14f71:	48 8d bc 24 98 00 00 	lea    rdi,[rsp+0x98]
   14f78:	00 
   14f79:	48 89 7c 24 10       	mov    QWORD PTR [rsp+0x10],rdi
   14f7e:	48 8d 74 24 58       	lea    rsi,[rsp+0x58]
   14f83:	ff d0                	call   rax
   14f85:	48 8b 7c 24 10       	mov    rdi,QWORD PTR [rsp+0x10]
   14f8a:	48 8d 15 c7 98 02 00 	lea    rdx,[rip+0x298c7]        # 3e858 <memmove+0x1128>
   14f91:	31 c0                	xor    eax,eax
   14f93:	89 c6                	mov    esi,eax
   14f95:	e8 a6 4b 00 00       	call   19b40 <_ZN81_$LT$alloc..vec..Vec$LT$T$C$A$GT$$u20$as$u20$core..ops..index..Index$LT$I$GT$$GT$5index17hed5a4736fbb866a9E>
   14f9a:	48 89 c7             	mov    rdi,rax
   14f9d:	48 89 bc 24 c0 00 00 	mov    QWORD PTR [rsp+0xc0],rdi
   14fa4:	00 
   14fa5:	48 8d 74 24 38       	lea    rsi,[rsp+0x38]
   14faa:	48 8d 54 24 28       	lea    rdx,[rsp+0x28]
   14faf:	e8 9c 2e 00 00       	call   17e50 <_ZN6diy_os25load_elf_and_jump_into_it17hfaf5487633f54a57E>
   14fb4:	48 8b 05 65 20 03 00 	mov    rax,QWORD PTR [rip+0x32065]        # 47020 <_DYNAMIC+0x188>
   14fbb:	ff d0                	call   rax
   14fbd:	cc                   	int3
   14fbe:	cc                   	int3
   14fbf:	cc                   	int3

0000000000014fc0 <rust_begin_unwind>:
   14fc0:	48 81 ec 88 00 00 00 	sub    rsp,0x88
   14fc7:	48 89 7c 24 10       	mov    QWORD PTR [rsp+0x10],rdi
   14fcc:	48 8d 4c 24 10       	lea    rcx,[rsp+0x10]
   14fd1:	48 89 4c 24 78       	mov    QWORD PTR [rsp+0x78],rcx
   14fd6:	48 8b 05 4b 20 03 00 	mov    rax,QWORD PTR [rip+0x3204b]        # 47028 <_DYNAMIC+0x190>
   14fdd:	48 89 84 24 80 00 00 	mov    QWORD PTR [rsp+0x80],rax
   14fe4:	00 
   14fe5:	48 89 4c 24 68       	mov    QWORD PTR [rsp+0x68],rcx
   14fea:	48 89 44 24 70       	mov    QWORD PTR [rsp+0x70],rax
   14fef:	48 8b 44 24 68       	mov    rax,QWORD PTR [rsp+0x68]
   14ff4:	48 8b 4c 24 70       	mov    rcx,QWORD PTR [rsp+0x70]
   14ff9:	48 89 4c 24 60       	mov    QWORD PTR [rsp+0x60],rcx
   14ffe:	48 89 44 24 58       	mov    QWORD PTR [rsp+0x58],rax
   15003:	48 8b 44 24 58       	mov    rax,QWORD PTR [rsp+0x58]
   15008:	48 8b 4c 24 60       	mov    rcx,QWORD PTR [rsp+0x60]
   1500d:	48 89 4c 24 50       	mov    QWORD PTR [rsp+0x50],rcx
   15012:	48 89 44 24 48       	mov    QWORD PTR [rsp+0x48],rax
   15017:	48 8d 35 52 98 02 00 	lea    rsi,[rip+0x29852]        # 3e870 <memmove+0x1140>
   1501e:	48 8b 05 0b 20 03 00 	mov    rax,QWORD PTR [rip+0x3200b]        # 47030 <_DYNAMIC+0x198>
   15025:	48 8d 7c 24 18       	lea    rdi,[rsp+0x18]
   1502a:	48 89 7c 24 08       	mov    QWORD PTR [rsp+0x8],rdi
   1502f:	48 8d 54 24 48       	lea    rdx,[rsp+0x48]
   15034:	ff d0                	call   rax
   15036:	48 8b 7c 24 08       	mov    rdi,QWORD PTR [rsp+0x8]
   1503b:	48 8b 05 ce 1f 03 00 	mov    rax,QWORD PTR [rip+0x31fce]        # 47010 <_DYNAMIC+0x178>
   15042:	ff d0                	call   rax
   15044:	48 8b 05 d5 1f 03 00 	mov    rax,QWORD PTR [rip+0x31fd5]        # 47020 <_DYNAMIC+0x188>
   1504b:	ff d0                	call   rax
   1504d:	cc                   	int3
   1504e:	cc                   	int3
   1504f:	cc                   	int3

0000000000015050 <_start>:
   15050:	48 83 ec 18          	sub    rsp,0x18
   15054:	48 89 3c 24          	mov    QWORD PTR [rsp],rdi
   15058:	48 89 7c 24 08       	mov    QWORD PTR [rsp+0x8],rdi
   1505d:	48 8d 05 8c fd ff ff 	lea    rax,[rip+0xfffffffffffffd8c]        # 14df0 <main>
   15064:	48 89 44 24 10       	mov    QWORD PTR [rsp+0x10],rax
   15069:	48 8d 3d b2 e0 ff ff 	lea    rdi,[rip+0xffffffffffffe0b2]        # 13122 <_ZN6diy_os1_19__BOOTLOADER_CONFIG17haf3e566d98bfde74E>
   15070:	48 8b 05 c1 1f 03 00 	mov    rax,QWORD PTR [rip+0x31fc1]        # 47038 <_DYNAMIC+0x1a0>
   15077:	be 7c 00 00 00       	mov    esi,0x7c
   1507c:	ff d0                	call   rax
   1507e:	48 8b 3c 24          	mov    rdi,QWORD PTR [rsp]
   15082:	e8 69 fd ff ff       	call   14df0 <main>
   15087:	cc                   	int3
   15088:	cc                   	int3
   15089:	cc                   	int3
   1508a:	cc                   	int3
   1508b:	cc                   	int3
   1508c:	cc                   	int3
   1508d:	cc                   	int3
   1508e:	cc                   	int3
   1508f:	cc                   	int3

0000000000015090 <_ZN4core3fmt9Arguments16new_v1_formatted17h38f2268b2d174e11E>:
   15090:	48 83 ec 50          	sub    rsp,0x50
   15094:	4d 89 ca             	mov    r10,r9
   15097:	48 89 f8             	mov    rax,rdi
   1509a:	4c 8b 4c 24 58       	mov    r9,QWORD PTR [rsp+0x58]
   1509f:	48 89 74 24 18       	mov    QWORD PTR [rsp+0x18],rsi
   150a4:	48 89 54 24 20       	mov    QWORD PTR [rsp+0x20],rdx
   150a9:	48 89 4c 24 28       	mov    QWORD PTR [rsp+0x28],rcx
   150ae:	4c 89 44 24 30       	mov    QWORD PTR [rsp+0x30],r8
   150b3:	4c 89 54 24 38       	mov    QWORD PTR [rsp+0x38],r10
   150b8:	4c 89 4c 24 40       	mov    QWORD PTR [rsp+0x40],r9
   150bd:	4c 89 54 24 08       	mov    QWORD PTR [rsp+0x8],r10
   150c2:	4c 89 4c 24 10       	mov    QWORD PTR [rsp+0x10],r9
   150c7:	48 89 37             	mov    QWORD PTR [rdi],rsi
   150ca:	48 89 57 08          	mov    QWORD PTR [rdi+0x8],rdx
   150ce:	48 8b 74 24 08       	mov    rsi,QWORD PTR [rsp+0x8]
   150d3:	48 8b 54 24 10       	mov    rdx,QWORD PTR [rsp+0x10]
   150d8:	48 89 77 20          	mov    QWORD PTR [rdi+0x20],rsi
   150dc:	48 89 57 28          	mov    QWORD PTR [rdi+0x28],rdx
   150e0:	48 89 4f 10          	mov    QWORD PTR [rdi+0x10],rcx
   150e4:	4c 89 47 18          	mov    QWORD PTR [rdi+0x18],r8
   150e8:	48 83 c4 50          	add    rsp,0x50
   150ec:	c3                   	ret
   150ed:	cc                   	int3
   150ee:	cc                   	int3
   150ef:	cc                   	int3

00000000000150f0 <_ZN4core3fmt9Arguments23as_statically_known_str17h5999098fa5f171adE>:
   150f0:	48 83 ec 60          	sub    rsp,0x60
   150f4:	48 89 7c 24 40       	mov    QWORD PTR [rsp+0x40],rdi
   150f9:	48 8b 07             	mov    rax,QWORD PTR [rdi]
   150fc:	48 89 04 24          	mov    QWORD PTR [rsp],rax
   15100:	48 8b 47 08          	mov    rax,QWORD PTR [rdi+0x8]
   15104:	48 89 44 24 08       	mov    QWORD PTR [rsp+0x8],rax
   15109:	48 8b 4f 18          	mov    rcx,QWORD PTR [rdi+0x18]
   1510d:	48 89 4c 24 10       	mov    QWORD PTR [rsp+0x10],rcx
   15112:	48 83 f8 00          	cmp    rax,0x0
   15116:	75 0d                	jne    15125 <_ZN4core3fmt9Arguments23as_statically_known_str17h5999098fa5f171adE+0x35>
   15118:	48 8b 44 24 10       	mov    rax,QWORD PTR [rsp+0x10]
   1511d:	48 83 f8 00          	cmp    rax,0x0
   15121:	74 0f                	je     15132 <_ZN4core3fmt9Arguments23as_statically_known_str17h5999098fa5f171adE+0x42>
   15123:	eb 22                	jmp    15147 <_ZN4core3fmt9Arguments23as_statically_known_str17h5999098fa5f171adE+0x57>
   15125:	48 8b 44 24 08       	mov    rax,QWORD PTR [rsp+0x8]
   1512a:	48 83 f8 01          	cmp    rax,0x1
   1512e:	74 55                	je     15185 <_ZN4core3fmt9Arguments23as_statically_known_str17h5999098fa5f171adE+0x95>
   15130:	eb 15                	jmp    15147 <_ZN4core3fmt9Arguments23as_statically_known_str17h5999098fa5f171adE+0x57>
   15132:	b8 01 00 00 00       	mov    eax,0x1
   15137:	48 89 44 24 28       	mov    QWORD PTR [rsp+0x28],rax
   1513c:	48 c7 44 24 30 00 00 	mov    QWORD PTR [rsp+0x30],0x0
   15143:	00 00 
   15145:	eb 18                	jmp    1515f <_ZN4core3fmt9Arguments23as_statically_known_str17h5999098fa5f171adE+0x6f>
   15147:	48 8b 0d ca 97 ff ff 	mov    rcx,QWORD PTR [rip+0xffffffffffff97ca]        # e918 <_ZN6diy_os6serial7SERIAL117h2f329108989edb16E-0xedb>
   1514e:	48 8b 05 cb 97 ff ff 	mov    rax,QWORD PTR [rip+0xffffffffffff97cb]        # e920 <_ZN6diy_os6serial7SERIAL117h2f329108989edb16E-0xed3>
   15155:	48 89 4c 24 28       	mov    QWORD PTR [rsp+0x28],rcx
   1515a:	48 89 44 24 30       	mov    QWORD PTR [rsp+0x30],rax
   1515f:	48 8d 44 24 28       	lea    rax,[rsp+0x28]
   15164:	48 89 44 24 50       	mov    QWORD PTR [rsp+0x50],rax
   15169:	48 8b 54 24 28       	mov    rdx,QWORD PTR [rsp+0x28]
   1516e:	b8 01 00 00 00       	mov    eax,0x1
   15173:	31 c9                	xor    ecx,ecx
   15175:	48 83 fa 00          	cmp    rdx,0x0
   15179:	48 0f 44 c1          	cmove  rax,rcx
   1517d:	48 83 f8 01          	cmp    rax,0x1
   15181:	74 29                	je     151ac <_ZN4core3fmt9Arguments23as_statically_known_str17h5999098fa5f171adE+0xbc>
   15183:	eb 2e                	jmp    151b3 <_ZN4core3fmt9Arguments23as_statically_known_str17h5999098fa5f171adE+0xc3>
   15185:	48 8b 44 24 10       	mov    rax,QWORD PTR [rsp+0x10]
   1518a:	48 83 f8 00          	cmp    rax,0x0
   1518e:	75 b7                	jne    15147 <_ZN4core3fmt9Arguments23as_statically_known_str17h5999098fa5f171adE+0x57>
   15190:	48 8b 04 24          	mov    rax,QWORD PTR [rsp]
   15194:	48 89 44 24 48       	mov    QWORD PTR [rsp+0x48],rax
   15199:	48 8b 08             	mov    rcx,QWORD PTR [rax]
   1519c:	48 8b 40 08          	mov    rax,QWORD PTR [rax+0x8]
   151a0:	48 89 4c 24 28       	mov    QWORD PTR [rsp+0x28],rcx
   151a5:	48 89 44 24 30       	mov    QWORD PTR [rsp+0x30],rax
   151aa:	eb b3                	jmp    1515f <_ZN4core3fmt9Arguments23as_statically_known_str17h5999098fa5f171adE+0x6f>
   151ac:	c6 44 24 3f 01       	mov    BYTE PTR [rsp+0x3f],0x1
   151b1:	eb 05                	jmp    151b8 <_ZN4core3fmt9Arguments23as_statically_known_str17h5999098fa5f171adE+0xc8>
   151b3:	c6 44 24 3f 00       	mov    BYTE PTR [rsp+0x3f],0x0
   151b8:	c6 44 24 5f 00       	mov    BYTE PTR [rsp+0x5f],0x0
   151bd:	f6 44 24 5f 01       	test   BYTE PTR [rsp+0x5f],0x1
   151c2:	75 1a                	jne    151de <_ZN4core3fmt9Arguments23as_statically_known_str17h5999098fa5f171adE+0xee>
   151c4:	48 8b 0d 4d 97 ff ff 	mov    rcx,QWORD PTR [rip+0xffffffffffff974d]        # e918 <_ZN6diy_os6serial7SERIAL117h2f329108989edb16E-0xedb>
   151cb:	48 8b 05 4e 97 ff ff 	mov    rax,QWORD PTR [rip+0xffffffffffff974e]        # e920 <_ZN6diy_os6serial7SERIAL117h2f329108989edb16E-0xed3>
   151d2:	48 89 4c 24 18       	mov    QWORD PTR [rsp+0x18],rcx
   151d7:	48 89 44 24 20       	mov    QWORD PTR [rsp+0x20],rax
   151dc:	eb 14                	jmp    151f2 <_ZN4core3fmt9Arguments23as_statically_known_str17h5999098fa5f171adE+0x102>
   151de:	48 8b 4c 24 28       	mov    rcx,QWORD PTR [rsp+0x28]
   151e3:	48 8b 44 24 30       	mov    rax,QWORD PTR [rsp+0x30]
   151e8:	48 89 4c 24 18       	mov    QWORD PTR [rsp+0x18],rcx
   151ed:	48 89 44 24 20       	mov    QWORD PTR [rsp+0x20],rax
   151f2:	48 8b 44 24 18       	mov    rax,QWORD PTR [rsp+0x18]
   151f7:	48 8b 54 24 20       	mov    rdx,QWORD PTR [rsp+0x20]
   151fc:	48 83 c4 60          	add    rsp,0x60
   15200:	c3                   	ret
   15201:	cc                   	int3
   15202:	cc                   	int3
   15203:	cc                   	int3
   15204:	cc                   	int3
   15205:	cc                   	int3
   15206:	cc                   	int3
   15207:	cc                   	int3
   15208:	cc                   	int3
   15209:	cc                   	int3
   1520a:	cc                   	int3
   1520b:	cc                   	int3
   1520c:	cc                   	int3
   1520d:	cc                   	int3
   1520e:	cc                   	int3
   1520f:	cc                   	int3

0000000000015210 <_ZN4core3fmt9Formatter9write_fmt17hfaba5e14e44fb67eE>:
   15210:	48 83 ec 78          	sub    rsp,0x78
   15214:	48 89 74 24 08       	mov    QWORD PTR [rsp+0x8],rsi
   15219:	48 89 f8             	mov    rax,rdi
   1521c:	48 8b 7c 24 08       	mov    rdi,QWORD PTR [rsp+0x8]
   15221:	48 89 44 24 10       	mov    QWORD PTR [rsp+0x10],rax
   15226:	48 89 44 24 30       	mov    QWORD PTR [rsp+0x30],rax
   1522b:	e8 c0 fe ff ff       	call   150f0 <_ZN4core3fmt9Arguments23as_statically_known_str17h5999098fa5f171adE>
   15230:	48 89 44 24 20       	mov    QWORD PTR [rsp+0x20],rax
   15235:	48 89 54 24 28       	mov    QWORD PTR [rsp+0x28],rdx
   1523a:	48 8b 54 24 20       	mov    rdx,QWORD PTR [rsp+0x20]
   1523f:	b8 01 00 00 00       	mov    eax,0x1
   15244:	31 c9                	xor    ecx,ecx
   15246:	48 83 fa 00          	cmp    rdx,0x0
   1524a:	48 0f 44 c1          	cmove  rax,rcx
   1524e:	48 83 f8 01          	cmp    rax,0x1
   15252:	75 2c                	jne    15280 <_ZN4core3fmt9Formatter9write_fmt17hfaba5e14e44fb67eE+0x70>
   15254:	48 8b 44 24 10       	mov    rax,QWORD PTR [rsp+0x10]
   15259:	48 8b 74 24 20       	mov    rsi,QWORD PTR [rsp+0x20]
   1525e:	48 8b 54 24 28       	mov    rdx,QWORD PTR [rsp+0x28]
   15263:	48 89 74 24 38       	mov    QWORD PTR [rsp+0x38],rsi
   15268:	48 89 54 24 40       	mov    QWORD PTR [rsp+0x40],rdx
   1526d:	48 8b 78 20          	mov    rdi,QWORD PTR [rax+0x20]
   15271:	48 8b 40 28          	mov    rax,QWORD PTR [rax+0x28]
   15275:	ff 50 18             	call   QWORD PTR [rax+0x18]
   15278:	24 01                	and    al,0x1
   1527a:	88 44 24 1f          	mov    BYTE PTR [rsp+0x1f],al
   1527e:	eb 5b                	jmp    152db <_ZN4core3fmt9Formatter9write_fmt17hfaba5e14e44fb67eE+0xcb>
   15280:	48 8b 4c 24 08       	mov    rcx,QWORD PTR [rsp+0x8]
   15285:	48 8b 44 24 10       	mov    rax,QWORD PTR [rsp+0x10]
   1528a:	48 8b 78 20          	mov    rdi,QWORD PTR [rax+0x20]
   1528e:	48 8b 70 28          	mov    rsi,QWORD PTR [rax+0x28]
   15292:	48 8b 41 28          	mov    rax,QWORD PTR [rcx+0x28]
   15296:	48 89 44 24 70       	mov    QWORD PTR [rsp+0x70],rax
   1529b:	48 8b 41 20          	mov    rax,QWORD PTR [rcx+0x20]
   1529f:	48 89 44 24 68       	mov    QWORD PTR [rsp+0x68],rax
   152a4:	48 8b 41 18          	mov    rax,QWORD PTR [rcx+0x18]
   152a8:	48 89 44 24 60       	mov    QWORD PTR [rsp+0x60],rax
   152ad:	48 8b 41 10          	mov    rax,QWORD PTR [rcx+0x10]
   152b1:	48 89 44 24 58       	mov    QWORD PTR [rsp+0x58],rax
   152b6:	48 8b 01             	mov    rax,QWORD PTR [rcx]
   152b9:	48 8b 49 08          	mov    rcx,QWORD PTR [rcx+0x8]
   152bd:	48 89 4c 24 50       	mov    QWORD PTR [rsp+0x50],rcx
   152c2:	48 89 44 24 48       	mov    QWORD PTR [rsp+0x48],rax
   152c7:	48 8b 05 72 1d 03 00 	mov    rax,QWORD PTR [rip+0x31d72]        # 47040 <_DYNAMIC+0x1a8>
   152ce:	48 8d 54 24 48       	lea    rdx,[rsp+0x48]
   152d3:	ff d0                	call   rax
   152d5:	24 01                	and    al,0x1
   152d7:	88 44 24 1f          	mov    BYTE PTR [rsp+0x1f],al
   152db:	8a 44 24 1f          	mov    al,BYTE PTR [rsp+0x1f]
   152df:	24 01                	and    al,0x1
   152e1:	0f b6 c0             	movzx  eax,al
   152e4:	48 83 c4 78          	add    rsp,0x78
   152e8:	c3                   	ret
   152e9:	cc                   	int3
   152ea:	cc                   	int3
   152eb:	cc                   	int3
   152ec:	cc                   	int3
   152ed:	cc                   	int3
   152ee:	cc                   	int3
   152ef:	cc                   	int3

00000000000152f0 <_ZN4core3num21_$LT$impl$u20$u64$GT$11checked_sub17h6cbe09176c54ccf7E>:
   152f0:	48 83 ec 30          	sub    rsp,0x30
   152f4:	48 89 34 24          	mov    QWORD PTR [rsp],rsi
   152f8:	48 89 7c 24 08       	mov    QWORD PTR [rsp+0x8],rdi
   152fd:	48 89 7c 24 20       	mov    QWORD PTR [rsp+0x20],rdi
   15302:	48 89 74 24 28       	mov    QWORD PTR [rsp+0x28],rsi
   15307:	48 39 f7             	cmp    rdi,rsi
   1530a:	72 1c                	jb     15328 <_ZN4core3num21_$LT$impl$u20$u64$GT$11checked_sub17h6cbe09176c54ccf7E+0x38>
   1530c:	48 8b 0c 24          	mov    rcx,QWORD PTR [rsp]
   15310:	48 8b 44 24 08       	mov    rax,QWORD PTR [rsp+0x8]
   15315:	48 29 c8             	sub    rax,rcx
   15318:	48 89 44 24 18       	mov    QWORD PTR [rsp+0x18],rax
   1531d:	48 c7 44 24 10 01 00 	mov    QWORD PTR [rsp+0x10],0x1
   15324:	00 00 
   15326:	eb 18                	jmp    15340 <_ZN4core3num21_$LT$impl$u20$u64$GT$11checked_sub17h6cbe09176c54ccf7E+0x50>
   15328:	48 8b 0d e9 95 ff ff 	mov    rcx,QWORD PTR [rip+0xffffffffffff95e9]        # e918 <_ZN6diy_os6serial7SERIAL117h2f329108989edb16E-0xedb>
   1532f:	48 8b 05 ea 95 ff ff 	mov    rax,QWORD PTR [rip+0xffffffffffff95ea]        # e920 <_ZN6diy_os6serial7SERIAL117h2f329108989edb16E-0xed3>
   15336:	48 89 4c 24 10       	mov    QWORD PTR [rsp+0x10],rcx
   1533b:	48 89 44 24 18       	mov    QWORD PTR [rsp+0x18],rax
   15340:	48 8b 44 24 10       	mov    rax,QWORD PTR [rsp+0x10]
   15345:	48 8b 54 24 18       	mov    rdx,QWORD PTR [rsp+0x18]
   1534a:	48 83 c4 30          	add    rsp,0x30
   1534e:	c3                   	ret
   1534f:	cc                   	int3

0000000000015350 <_ZN102_$LT$core..iter..adapters..map..Map$LT$I$C$F$GT$$u20$as$u20$core..iter..traits..iterator..Iterator$GT$4next17h2150c779ff91b3b7E>:
   15350:	48 83 ec 48          	sub    rsp,0x48
   15354:	48 89 7c 24 08       	mov    QWORD PTR [rsp+0x8],rdi
   15359:	48 89 7c 24 30       	mov    QWORD PTR [rsp+0x30],rdi
   1535e:	48 8b 05 e3 1c 03 00 	mov    rax,QWORD PTR [rip+0x31ce3]        # 47048 <_DYNAMIC+0x1b0>
   15365:	ff d0                	call   rax
   15367:	48 8b 7c 24 08       	mov    rdi,QWORD PTR [rsp+0x8]
   1536c:	48 89 44 24 20       	mov    QWORD PTR [rsp+0x20],rax
   15371:	48 89 54 24 28       	mov    QWORD PTR [rsp+0x28],rdx
   15376:	48 83 c7 10          	add    rdi,0x10
   1537a:	48 89 7c 24 10       	mov    QWORD PTR [rsp+0x10],rdi
   1537f:	48 89 7c 24 38       	mov    QWORD PTR [rsp+0x38],rdi
   15384:	48 83 7c 24 20 00    	cmp    QWORD PTR [rsp+0x20],0x0
   1538a:	75 0b                	jne    15397 <_ZN102_$LT$core..iter..adapters..map..Map$LT$I$C$F$GT$$u20$as$u20$core..iter..traits..iterator..Iterator$GT$4next17h2150c779ff91b3b7E+0x47>
   1538c:	48 c7 44 24 18 00 00 	mov    QWORD PTR [rsp+0x18],0x0
   15393:	00 00 
   15395:	eb 19                	jmp    153b0 <_ZN102_$LT$core..iter..adapters..map..Map$LT$I$C$F$GT$$u20$as$u20$core..iter..traits..iterator..Iterator$GT$4next17h2150c779ff91b3b7E+0x60>
   15397:	48 8b 7c 24 10       	mov    rdi,QWORD PTR [rsp+0x10]
   1539c:	48 8b 74 24 28       	mov    rsi,QWORD PTR [rsp+0x28]
   153a1:	48 89 74 24 40       	mov    QWORD PTR [rsp+0x40],rsi
   153a6:	e8 95 ef ff ff       	call   14340 <_ZN4core3ops8function5impls80_$LT$impl$u20$core..ops..function..FnOnce$LT$A$GT$$u20$for$u20$$RF$mut$u20$F$GT$9call_once17h034171e98b4d7853E>
   153ab:	48 89 44 24 18       	mov    QWORD PTR [rsp+0x18],rax
   153b0:	48 8b 44 24 18       	mov    rax,QWORD PTR [rsp+0x18]
   153b5:	48 83 c4 48          	add    rsp,0x48
   153b9:	c3                   	ret
   153ba:	cc                   	int3
   153bb:	cc                   	int3
   153bc:	cc                   	int3
   153bd:	cc                   	int3
   153be:	cc                   	int3
   153bf:	cc                   	int3

00000000000153c0 <_ZN63_$LT$I$u20$as$u20$core..iter..traits..collect..IntoIterator$GT$9into_iter17hcd3b60b532f52105E>:
   153c0:	48 89 f8             	mov    rax,rdi
   153c3:	48 8b 0e             	mov    rcx,QWORD PTR [rsi]
   153c6:	48 89 0f             	mov    QWORD PTR [rdi],rcx
   153c9:	48 8b 4e 08          	mov    rcx,QWORD PTR [rsi+0x8]
   153cd:	48 89 4f 08          	mov    QWORD PTR [rdi+0x8],rcx
   153d1:	48 8b 4e 10          	mov    rcx,QWORD PTR [rsi+0x10]
   153d5:	48 89 4f 10          	mov    QWORD PTR [rdi+0x10],rcx
   153d9:	c3                   	ret
   153da:	cc                   	int3
   153db:	cc                   	int3
   153dc:	cc                   	int3
   153dd:	cc                   	int3
   153de:	cc                   	int3
   153df:	cc                   	int3

00000000000153e0 <_ZN4core3ptr9const_ptr33_$LT$impl$u20$$BP$const$u20$T$GT$22copy_to_nonoverlapping17h6e634ff27f9e087fE>:
   153e0:	48 83 ec 38          	sub    rsp,0x38
   153e4:	48 89 54 24 08       	mov    QWORD PTR [rsp+0x8],rdx
   153e9:	48 89 74 24 10       	mov    QWORD PTR [rsp+0x10],rsi
   153ee:	48 89 7c 24 18       	mov    QWORD PTR [rsp+0x18],rdi
   153f3:	48 89 7c 24 20       	mov    QWORD PTR [rsp+0x20],rdi
   153f8:	48 89 74 24 28       	mov    QWORD PTR [rsp+0x28],rsi
   153fd:	48 89 54 24 30       	mov    QWORD PTR [rsp+0x30],rdx
   15402:	4c 8b 44 24 08       	mov    r8,QWORD PTR [rsp+0x8]
   15407:	48 8b 74 24 10       	mov    rsi,QWORD PTR [rsp+0x10]
   1540c:	48 8b 7c 24 18       	mov    rdi,QWORD PTR [rsp+0x18]
   15411:	b9 01 00 00 00       	mov    ecx,0x1
   15416:	48 89 ca             	mov    rdx,rcx
   15419:	e8 92 f4 ff ff       	call   148b0 <_ZN4core10intrinsics19copy_nonoverlapping18precondition_check17h85bb7cb28deb462cE>
   1541e:	48 8b 74 24 18       	mov    rsi,QWORD PTR [rsp+0x18]
   15423:	48 8b 7c 24 10       	mov    rdi,QWORD PTR [rsp+0x10]
   15428:	48 8b 54 24 08       	mov    rdx,QWORD PTR [rsp+0x8]
   1542d:	48 c1 e2 00          	shl    rdx,0x0
   15431:	48 8b 05 18 1c 03 00 	mov    rax,QWORD PTR [rip+0x31c18]        # 47050 <_DYNAMIC+0x1b8>
   15438:	ff d0                	call   rax
   1543a:	48 83 c4 38          	add    rsp,0x38
   1543e:	c3                   	ret
   1543f:	cc                   	int3

0000000000015440 <_ZN155_$LT$x86_64..structures..paging..page_table..PageTable$u20$as$u20$core..ops..index..Index$LT$x86_64..structures..paging..page_table..PageTableIndex$GT$$GT$5index17hf7ff090b92d15456E>:
   15440:	48 83 ec 28          	sub    rsp,0x28
   15444:	48 89 14 24          	mov    QWORD PTR [rsp],rdx
   15448:	48 89 7c 24 08       	mov    QWORD PTR [rsp+0x8],rdi
   1544d:	66 89 f0             	mov    ax,si
   15450:	48 89 7c 24 18       	mov    QWORD PTR [rsp+0x18],rdi
   15455:	66 89 44 24 26       	mov    WORD PTR [rsp+0x26],ax
   1545a:	66 89 c7             	mov    di,ax
   1545d:	e8 9e 00 00 00       	call   15500 <_ZN6x86_6410structures6paging10page_table117_$LT$impl$u20$core..convert..From$LT$x86_64..structures..paging..page_table..PageTableIndex$GT$$u20$for$u20$usize$GT$4from17h71f209f7023a49d5E>
   15462:	48 89 44 24 10       	mov    QWORD PTR [rsp+0x10],rax
   15467:	48 3d 00 02 00 00    	cmp    rax,0x200
   1546d:	73 16                	jae    15485 <_ZN155_$LT$x86_64..structures..paging..page_table..PageTable$u20$as$u20$core..ops..index..Index$LT$x86_64..structures..paging..page_table..PageTableIndex$GT$$GT$5index17hf7ff090b92d15456E+0x45>
   1546f:	48 8b 44 24 08       	mov    rax,QWORD PTR [rsp+0x8]
   15474:	48 8b 4c 24 10       	mov    rcx,QWORD PTR [rsp+0x10]
   15479:	48 c1 e1 03          	shl    rcx,0x3
   1547d:	48 01 c8             	add    rax,rcx
   15480:	48 83 c4 28          	add    rsp,0x28
   15484:	c3                   	ret
   15485:	48 8b 14 24          	mov    rdx,QWORD PTR [rsp]
   15489:	48 8b 7c 24 10       	mov    rdi,QWORD PTR [rsp+0x10]
   1548e:	48 8b 05 c3 1b 03 00 	mov    rax,QWORD PTR [rip+0x31bc3]        # 47058 <_DYNAMIC+0x1c0>
   15495:	be 00 02 00 00       	mov    esi,0x200
   1549a:	ff d0                	call   rax
   1549c:	cc                   	int3
   1549d:	cc                   	int3
   1549e:	cc                   	int3
   1549f:	cc                   	int3

00000000000154a0 <_ZN158_$LT$x86_64..structures..paging..page_table..PageTable$u20$as$u20$core..ops..index..IndexMut$LT$x86_64..structures..paging..page_table..PageTableIndex$GT$$GT$9index_mut17he347da3023a7240dE>:
   154a0:	48 83 ec 28          	sub    rsp,0x28
   154a4:	48 89 14 24          	mov    QWORD PTR [rsp],rdx
   154a8:	48 89 7c 24 08       	mov    QWORD PTR [rsp+0x8],rdi
   154ad:	66 89 f0             	mov    ax,si
   154b0:	48 89 7c 24 18       	mov    QWORD PTR [rsp+0x18],rdi
   154b5:	66 89 44 24 26       	mov    WORD PTR [rsp+0x26],ax
   154ba:	66 89 c7             	mov    di,ax
   154bd:	e8 3e 00 00 00       	call   15500 <_ZN6x86_6410structures6paging10page_table117_$LT$impl$u20$core..convert..From$LT$x86_64..structures..paging..page_table..PageTableIndex$GT$$u20$for$u20$usize$GT$4from17h71f209f7023a49d5E>
   154c2:	48 89 44 24 10       	mov    QWORD PTR [rsp+0x10],rax
   154c7:	48 3d 00 02 00 00    	cmp    rax,0x200
   154cd:	73 16                	jae    154e5 <_ZN158_$LT$x86_64..structures..paging..page_table..PageTable$u20$as$u20$core..ops..index..IndexMut$LT$x86_64..structures..paging..page_table..PageTableIndex$GT$$GT$9index_mut17he347da3023a7240dE+0x45>
   154cf:	48 8b 44 24 08       	mov    rax,QWORD PTR [rsp+0x8]
   154d4:	48 8b 4c 24 10       	mov    rcx,QWORD PTR [rsp+0x10]
   154d9:	48 c1 e1 03          	shl    rcx,0x3
   154dd:	48 01 c8             	add    rax,rcx
   154e0:	48 83 c4 28          	add    rsp,0x28
   154e4:	c3                   	ret
   154e5:	48 8b 14 24          	mov    rdx,QWORD PTR [rsp]
   154e9:	48 8b 7c 24 10       	mov    rdi,QWORD PTR [rsp+0x10]
   154ee:	48 8b 05 63 1b 03 00 	mov    rax,QWORD PTR [rip+0x31b63]        # 47058 <_DYNAMIC+0x1c0>
   154f5:	be 00 02 00 00       	mov    esi,0x200
   154fa:	ff d0                	call   rax
   154fc:	cc                   	int3
   154fd:	cc                   	int3
   154fe:	cc                   	int3
   154ff:	cc                   	int3

0000000000015500 <_ZN6x86_6410structures6paging10page_table117_$LT$impl$u20$core..convert..From$LT$x86_64..structures..paging..page_table..PageTableIndex$GT$$u20$for$u20$usize$GT$4from17h71f209f7023a49d5E>:
   15500:	48 83 ec 04          	sub    rsp,0x4
   15504:	66 89 f8             	mov    ax,di
   15507:	66 89 04 24          	mov    WORD PTR [rsp],ax
   1550b:	66 89 44 24 02       	mov    WORD PTR [rsp+0x2],ax
   15510:	0f b7 c0             	movzx  eax,ax
   15513:	48 83 c4 04          	add    rsp,0x4
   15517:	c3                   	ret
   15518:	cc                   	int3
   15519:	cc                   	int3
   1551a:	cc                   	int3
   1551b:	cc                   	int3
   1551c:	cc                   	int3
   1551d:	cc                   	int3
   1551e:	cc                   	int3
   1551f:	cc                   	int3

0000000000015520 <_ZN6x86_6410structures6paging10page_table14PageTableEntry10set_unused17hc47714004f1b89b9E>:
   15520:	50                   	push   rax
   15521:	48 89 3c 24          	mov    QWORD PTR [rsp],rdi
   15525:	48 c7 07 00 00 00 00 	mov    QWORD PTR [rdi],0x0
   1552c:	58                   	pop    rax
   1552d:	c3                   	ret
   1552e:	cc                   	int3
   1552f:	cc                   	int3

0000000000015530 <_ZN6x86_6410structures6paging10page_table14PageTableEntry4addr17h9d4940ec64f88197E>:
   15530:	50                   	push   rax
   15531:	48 89 f8             	mov    rax,rdi
   15534:	48 89 04 24          	mov    QWORD PTR [rsp],rax
   15538:	48 bf 00 f0 ff ff ff 	movabs rdi,0xffffffffff000
   1553f:	ff 0f 00 
   15542:	48 23 38             	and    rdi,QWORD PTR [rax]
   15545:	e8 f6 1a 00 00       	call   17040 <_ZN6x86_644addr8PhysAddr3new17h0bba75620184c1f5E>
   1554a:	59                   	pop    rcx
   1554b:	c3                   	ret
   1554c:	cc                   	int3
   1554d:	cc                   	int3
   1554e:	cc                   	int3
   1554f:	cc                   	int3

0000000000015550 <_ZN6x86_6410structures6paging10page_table14PageTableEntry5flags17h956cace730fa3dcdE>:
   15550:	50                   	push   rax
   15551:	48 89 3c 24          	mov    QWORD PTR [rsp],rdi
   15555:	48 8b 3f             	mov    rdi,QWORD PTR [rdi]
   15558:	e8 b3 14 00 00       	call   16a10 <_ZN6x86_6410structures6paging10page_table1_72_$LT$impl$u20$x86_64..structures..paging..page_table..PageTableFlags$GT$18from_bits_truncate17h54a0fc3675e0591eE>
   1555d:	59                   	pop    rcx
   1555e:	c3                   	ret
   1555f:	cc                   	int3

0000000000015560 <_ZN6x86_6410structures6paging10page_table14PageTableEntry5frame17h2f5cb265a109157aE>:
   15560:	48 83 ec 58          	sub    rsp,0x58
   15564:	48 89 74 24 08       	mov    QWORD PTR [rsp+0x8],rsi
   15569:	48 89 f8             	mov    rax,rdi
   1556c:	48 8b 7c 24 08       	mov    rdi,QWORD PTR [rsp+0x8]
   15571:	48 89 44 24 10       	mov    QWORD PTR [rsp+0x10],rax
   15576:	48 89 44 24 18       	mov    QWORD PTR [rsp+0x18],rax
   1557b:	48 89 7c 24 48       	mov    QWORD PTR [rsp+0x48],rdi
   15580:	e8 cb ff ff ff       	call   15550 <_ZN6x86_6410structures6paging10page_table14PageTableEntry5flags17h956cace730fa3dcdE>
   15585:	48 89 44 24 20       	mov    QWORD PTR [rsp+0x20],rax
   1558a:	48 8d 7c 24 20       	lea    rdi,[rsp+0x20]
   1558f:	be 01 00 00 00       	mov    esi,0x1
   15594:	e8 b7 14 00 00       	call   16a50 <_ZN6x86_6410structures6paging10page_table1_72_$LT$impl$u20$x86_64..structures..paging..page_table..PageTableFlags$GT$8contains17h977f7d5c8c07421fE>
   15599:	a8 01                	test   al,0x1
   1559b:	75 19                	jne    155b6 <_ZN6x86_6410structures6paging10page_table14PageTableEntry5frame17h2f5cb265a109157aE+0x56>
   1559d:	48 8b 44 24 10       	mov    rax,QWORD PTR [rsp+0x10]
   155a2:	c6 44 24 2f 00       	mov    BYTE PTR [rsp+0x2f],0x0
   155a7:	8a 4c 24 2f          	mov    cl,BYTE PTR [rsp+0x2f]
   155ab:	80 e1 01             	and    cl,0x1
   155ae:	88 48 01             	mov    BYTE PTR [rax+0x1],cl
   155b1:	c6 00 01             	mov    BYTE PTR [rax],0x1
   155b4:	eb 24                	jmp    155da <_ZN6x86_6410structures6paging10page_table14PageTableEntry5frame17h2f5cb265a109157aE+0x7a>
   155b6:	48 8b 7c 24 08       	mov    rdi,QWORD PTR [rsp+0x8]
   155bb:	e8 90 ff ff ff       	call   15550 <_ZN6x86_6410structures6paging10page_table14PageTableEntry5flags17h956cace730fa3dcdE>
   155c0:	48 89 44 24 30       	mov    QWORD PTR [rsp+0x30],rax
   155c5:	48 8d 7c 24 30       	lea    rdi,[rsp+0x30]
   155ca:	be 80 00 00 00       	mov    esi,0x80
   155cf:	e8 7c 14 00 00       	call   16a50 <_ZN6x86_6410structures6paging10page_table1_72_$LT$impl$u20$x86_64..structures..paging..page_table..PageTableFlags$GT$8contains17h977f7d5c8c07421fE>
   155d4:	a8 01                	test   al,0x1
   155d6:	75 47                	jne    1561f <_ZN6x86_6410structures6paging10page_table14PageTableEntry5frame17h2f5cb265a109157aE+0xbf>
   155d8:	eb 0a                	jmp    155e4 <_ZN6x86_6410structures6paging10page_table14PageTableEntry5frame17h2f5cb265a109157aE+0x84>
   155da:	48 8b 44 24 18       	mov    rax,QWORD PTR [rsp+0x18]
   155df:	48 83 c4 58          	add    rsp,0x58
   155e3:	c3                   	ret
   155e4:	48 8b 7c 24 08       	mov    rdi,QWORD PTR [rsp+0x8]
   155e9:	e8 42 ff ff ff       	call   15530 <_ZN6x86_6410structures6paging10page_table14PageTableEntry4addr17h9d4940ec64f88197E>
   155ee:	48 89 c7             	mov    rdi,rax
   155f1:	48 8b 05 68 1a 03 00 	mov    rax,QWORD PTR [rip+0x31a68]        # 47060 <_DYNAMIC+0x1c8>
   155f8:	ff d0                	call   rax
   155fa:	48 89 c1             	mov    rcx,rax
   155fd:	48 8b 44 24 10       	mov    rax,QWORD PTR [rsp+0x10]
   15602:	48 89 4c 24 50       	mov    QWORD PTR [rsp+0x50],rcx
   15607:	48 8b 4c 24 50       	mov    rcx,QWORD PTR [rsp+0x50]
   1560c:	48 89 4c 24 40       	mov    QWORD PTR [rsp+0x40],rcx
   15611:	48 8b 4c 24 40       	mov    rcx,QWORD PTR [rsp+0x40]
   15616:	48 89 48 08          	mov    QWORD PTR [rax+0x8],rcx
   1561a:	c6 00 00             	mov    BYTE PTR [rax],0x0
   1561d:	eb bb                	jmp    155da <_ZN6x86_6410structures6paging10page_table14PageTableEntry5frame17h2f5cb265a109157aE+0x7a>
   1561f:	48 8b 44 24 10       	mov    rax,QWORD PTR [rsp+0x10]
   15624:	c6 44 24 3f 01       	mov    BYTE PTR [rsp+0x3f],0x1
   15629:	8a 4c 24 3f          	mov    cl,BYTE PTR [rsp+0x3f]
   1562d:	80 e1 01             	and    cl,0x1
   15630:	88 48 01             	mov    BYTE PTR [rax+0x1],cl
   15633:	c6 00 01             	mov    BYTE PTR [rax],0x1
   15636:	eb a2                	jmp    155da <_ZN6x86_6410structures6paging10page_table14PageTableEntry5frame17h2f5cb265a109157aE+0x7a>
   15638:	cc                   	int3
   15639:	cc                   	int3
   1563a:	cc                   	int3
   1563b:	cc                   	int3
   1563c:	cc                   	int3
   1563d:	cc                   	int3
   1563e:	cc                   	int3
   1563f:	cc                   	int3

0000000000015640 <_ZN6x86_6410structures6paging10page_table14PageTableEntry8set_addr17h8d910c282a0cc3e7E>:
   15640:	48 83 ec 38          	sub    rsp,0x38
   15644:	48 89 74 24 10       	mov    QWORD PTR [rsp+0x10],rsi
   15649:	48 89 f8             	mov    rax,rdi
   1564c:	48 8b 7c 24 10       	mov    rdi,QWORD PTR [rsp+0x10]
   15651:	48 89 44 24 18       	mov    QWORD PTR [rsp+0x18],rax
   15656:	48 89 54 24 20       	mov    QWORD PTR [rsp+0x20],rdx
   1565b:	48 89 44 24 28       	mov    QWORD PTR [rsp+0x28],rax
   15660:	48 89 7c 24 30       	mov    QWORD PTR [rsp+0x30],rdi
   15665:	48 8b 05 fc 19 03 00 	mov    rax,QWORD PTR [rip+0x319fc]        # 47068 <_DYNAMIC+0x1d0>
   1566c:	be 00 10 00 00       	mov    esi,0x1000
   15671:	ff d0                	call   rax
   15673:	a8 01                	test   al,0x1
   15675:	75 1c                	jne    15693 <_ZN6x86_6410structures6paging10page_table14PageTableEntry8set_addr17h8d910c282a0cc3e7E+0x53>
   15677:	48 8d 3d d8 95 ff ff 	lea    rdi,[rip+0xffffffffffff95d8]        # ec56 <_ZN6diy_os6serial7SERIAL117h2f329108989edb16E-0xb9d>
   1567e:	48 8d 15 0b 92 02 00 	lea    rdx,[rip+0x2920b]        # 3e890 <memmove+0x1160>
   15685:	48 8b 05 e4 19 03 00 	mov    rax,QWORD PTR [rip+0x319e4]        # 47070 <_DYNAMIC+0x1d8>
   1568c:	be 31 00 00 00       	mov    esi,0x31
   15691:	ff d0                	call   rax
   15693:	48 8b 7c 24 10       	mov    rdi,QWORD PTR [rsp+0x10]
   15698:	e8 f3 19 00 00       	call   17090 <_ZN6x86_644addr8PhysAddr6as_u6417hc09d4a4fde14ded3E>
   1569d:	48 89 44 24 08       	mov    QWORD PTR [rsp+0x8],rax
   156a2:	48 8d 7c 24 20       	lea    rdi,[rsp+0x20]
   156a7:	e8 74 13 00 00       	call   16a20 <_ZN6x86_6410structures6paging10page_table1_72_$LT$impl$u20$x86_64..structures..paging..page_table..PageTableFlags$GT$4bits17h1535141e69d046feE>
   156ac:	48 8b 4c 24 08       	mov    rcx,QWORD PTR [rsp+0x8]
   156b1:	48 89 c2             	mov    rdx,rax
   156b4:	48 8b 44 24 18       	mov    rax,QWORD PTR [rsp+0x18]
   156b9:	48 09 d1             	or     rcx,rdx
   156bc:	48 89 08             	mov    QWORD PTR [rax],rcx
   156bf:	48 83 c4 38          	add    rsp,0x38
   156c3:	c3                   	ret
   156c4:	cc                   	int3
   156c5:	cc                   	int3
   156c6:	cc                   	int3
   156c7:	cc                   	int3
   156c8:	cc                   	int3
   156c9:	cc                   	int3
   156ca:	cc                   	int3
   156cb:	cc                   	int3
   156cc:	cc                   	int3
   156cd:	cc                   	int3
   156ce:	cc                   	int3
   156cf:	cc                   	int3

00000000000156d0 <_ZN6x86_6410structures6paging10page_table14PageTableEntry9is_unused17h00c7c9b4f677498dE>:
   156d0:	50                   	push   rax
   156d1:	48 89 3c 24          	mov    QWORD PTR [rsp],rdi
   156d5:	48 83 3f 00          	cmp    QWORD PTR [rdi],0x0
   156d9:	0f 94 c0             	sete   al
   156dc:	24 01                	and    al,0x1
   156de:	0f b6 c0             	movzx  eax,al
   156e1:	59                   	pop    rcx
   156e2:	c3                   	ret
   156e3:	cc                   	int3
   156e4:	cc                   	int3
   156e5:	cc                   	int3
   156e6:	cc                   	int3
   156e7:	cc                   	int3
   156e8:	cc                   	int3
   156e9:	cc                   	int3
   156ea:	cc                   	int3
   156eb:	cc                   	int3
   156ec:	cc                   	int3
   156ed:	cc                   	int3
   156ee:	cc                   	int3
   156ef:	cc                   	int3

00000000000156f0 <_ZN6x86_6410structures6paging10page_table14PageTableEntry9set_flags17h152be69506f5a26aE>:
   156f0:	48 83 ec 28          	sub    rsp,0x28
   156f4:	48 89 7c 24 08       	mov    QWORD PTR [rsp+0x8],rdi
   156f9:	48 89 74 24 18       	mov    QWORD PTR [rsp+0x18],rsi
   156fe:	48 89 7c 24 20       	mov    QWORD PTR [rsp+0x20],rdi
   15703:	e8 28 fe ff ff       	call   15530 <_ZN6x86_6410structures6paging10page_table14PageTableEntry4addr17h9d4940ec64f88197E>
   15708:	48 89 c7             	mov    rdi,rax
   1570b:	e8 80 19 00 00       	call   17090 <_ZN6x86_644addr8PhysAddr6as_u6417hc09d4a4fde14ded3E>
   15710:	48 89 44 24 10       	mov    QWORD PTR [rsp+0x10],rax
   15715:	48 8d 7c 24 18       	lea    rdi,[rsp+0x18]
   1571a:	e8 01 13 00 00       	call   16a20 <_ZN6x86_6410structures6paging10page_table1_72_$LT$impl$u20$x86_64..structures..paging..page_table..PageTableFlags$GT$4bits17h1535141e69d046feE>
   1571f:	48 8b 7c 24 08       	mov    rdi,QWORD PTR [rsp+0x8]
   15724:	48 89 c1             	mov    rcx,rax
   15727:	48 8b 44 24 10       	mov    rax,QWORD PTR [rsp+0x10]
   1572c:	48 09 c8             	or     rax,rcx
   1572f:	48 89 07             	mov    QWORD PTR [rdi],rax
   15732:	48 83 c4 28          	add    rsp,0x28
   15736:	c3                   	ret
   15737:	cc                   	int3
   15738:	cc                   	int3
   15739:	cc                   	int3
   1573a:	cc                   	int3
   1573b:	cc                   	int3
   1573c:	cc                   	int3
   1573d:	cc                   	int3
   1573e:	cc                   	int3
   1573f:	cc                   	int3

0000000000015740 <_ZN6x86_6410structures6paging10page_table14PageTableEntry9set_frame17ha500d45386c0bda2E>:
   15740:	48 83 ec 38          	sub    rsp,0x38
   15744:	48 89 3c 24          	mov    QWORD PTR [rsp],rdi
   15748:	48 89 74 24 10       	mov    QWORD PTR [rsp+0x10],rsi
   1574d:	48 8b 44 24 10       	mov    rax,QWORD PTR [rsp+0x10]
   15752:	48 89 44 24 08       	mov    QWORD PTR [rsp+0x8],rax
   15757:	48 89 54 24 18       	mov    QWORD PTR [rsp+0x18],rdx
   1575c:	48 89 7c 24 20       	mov    QWORD PTR [rsp+0x20],rdi
   15761:	48 8d 7c 24 18       	lea    rdi,[rsp+0x18]
   15766:	be 80 00 00 00       	mov    esi,0x80
   1576b:	e8 e0 12 00 00       	call   16a50 <_ZN6x86_6410structures6paging10page_table1_72_$LT$impl$u20$x86_64..structures..paging..page_table..PageTableFlags$GT$8contains17h977f7d5c8c07421fE>
   15770:	a8 01                	test   al,0x1
   15772:	75 38                	jne    157ac <_ZN6x86_6410structures6paging10page_table14PageTableEntry9set_frame17ha500d45386c0bda2E+0x6c>
   15774:	48 8b 44 24 08       	mov    rax,QWORD PTR [rsp+0x8]
   15779:	48 89 44 24 28       	mov    QWORD PTR [rsp+0x28],rax
   1577e:	48 8b 44 24 28       	mov    rax,QWORD PTR [rsp+0x28]
   15783:	48 89 44 24 30       	mov    QWORD PTR [rsp+0x30],rax
   15788:	48 8b 7c 24 30       	mov    rdi,QWORD PTR [rsp+0x30]
   1578d:	48 8b 05 24 18 03 00 	mov    rax,QWORD PTR [rip+0x31824]        # 46fb8 <_DYNAMIC+0x120>
   15794:	ff d0                	call   rax
   15796:	48 8b 3c 24          	mov    rdi,QWORD PTR [rsp]
   1579a:	48 89 c6             	mov    rsi,rax
   1579d:	48 8b 54 24 18       	mov    rdx,QWORD PTR [rsp+0x18]
   157a2:	e8 99 fe ff ff       	call   15640 <_ZN6x86_6410structures6paging10page_table14PageTableEntry8set_addr17h8d910c282a0cc3e7E>
   157a7:	48 83 c4 38          	add    rsp,0x38
   157ab:	c3                   	ret
   157ac:	48 8d 3d 45 95 ff ff 	lea    rdi,[rip+0xffffffffffff9545]        # ecf8 <_ZN6diy_os6serial7SERIAL117h2f329108989edb16E-0xafb>
   157b3:	48 8d 15 ee 90 02 00 	lea    rdx,[rip+0x290ee]        # 3e8a8 <memmove+0x1178>
   157ba:	48 8b 05 af 18 03 00 	mov    rax,QWORD PTR [rip+0x318af]        # 47070 <_DYNAMIC+0x1d8>
   157c1:	be 3c 00 00 00       	mov    esi,0x3c
   157c6:	ff d0                	call   rax
   157c8:	cc                   	int3
   157c9:	cc                   	int3
   157ca:	cc                   	int3
   157cb:	cc                   	int3
   157cc:	cc                   	int3
   157cd:	cc                   	int3
   157ce:	cc                   	int3
   157cf:	cc                   	int3

00000000000157d0 <_ZN6x86_6410structures6paging10page_table14PageTableIndex12new_truncate17h96c34cf7a3601c64E>:
   157d0:	48 83 ec 02          	sub    rsp,0x2
   157d4:	66 89 f8             	mov    ax,di
   157d7:	66 89 04 24          	mov    WORD PTR [rsp],ax
   157db:	66 25 ff 01          	and    ax,0x1ff
   157df:	48 83 c4 02          	add    rsp,0x2
   157e3:	c3                   	ret
   157e4:	cc                   	int3
   157e5:	cc                   	int3
   157e6:	cc                   	int3
   157e7:	cc                   	int3
   157e8:	cc                   	int3
   157e9:	cc                   	int3
   157ea:	cc                   	int3
   157eb:	cc                   	int3
   157ec:	cc                   	int3
   157ed:	cc                   	int3
   157ee:	cc                   	int3
   157ef:	cc                   	int3

00000000000157f0 <_ZN6x86_6410structures6paging10page_table1_106_$LT$impl$u20$core..ops..bit..BitOr$u20$for$u20$x86_64..structures..paging..page_table..PageTableFlags$GT$5bitor17h3c4a53d6be740898E>:
   157f0:	48 83 ec 18          	sub    rsp,0x18
   157f4:	48 89 7c 24 08       	mov    QWORD PTR [rsp+0x8],rdi
   157f9:	48 89 74 24 10       	mov    QWORD PTR [rsp+0x10],rsi
   157fe:	e8 2d 12 00 00       	call   16a30 <_ZN6x86_6410structures6paging10page_table1_72_$LT$impl$u20$x86_64..structures..paging..page_table..PageTableFlags$GT$5union17he7b3744cfe6d2578E>
   15803:	48 83 c4 18          	add    rsp,0x18
   15807:	c3                   	ret
   15808:	cc                   	int3
   15809:	cc                   	int3
   1580a:	cc                   	int3
   1580b:	cc                   	int3
   1580c:	cc                   	int3
   1580d:	cc                   	int3
   1580e:	cc                   	int3
   1580f:	cc                   	int3

0000000000015810 <_ZN6x86_6410structures6paging10page_table1_107_$LT$impl$u20$core..ops..bit..BitAnd$u20$for$u20$x86_64..structures..paging..page_table..PageTableFlags$GT$6bitand17hb11cbabc6aa4568aE>:
   15810:	48 83 ec 18          	sub    rsp,0x18
   15814:	48 89 7c 24 08       	mov    QWORD PTR [rsp+0x8],rdi
   15819:	48 89 74 24 10       	mov    QWORD PTR [rsp+0x10],rsi
   1581e:	e8 cd 11 00 00       	call   169f0 <_ZN6x86_6410structures6paging10page_table1_72_$LT$impl$u20$x86_64..structures..paging..page_table..PageTableFlags$GT$12intersection17h47eaea911e19475aE>
   15823:	48 83 c4 18          	add    rsp,0x18
   15827:	c3                   	ret
   15828:	cc                   	int3
   15829:	cc                   	int3
   1582a:	cc                   	int3
   1582b:	cc                   	int3
   1582c:	cc                   	int3
   1582d:	cc                   	int3
   1582e:	cc                   	int3
   1582f:	cc                   	int3

0000000000015830 <_ZN6x86_6410structures6paging10page_table1_16InternalBitFlags12intersection17h9a2718d95c74f74eE>:
   15830:	48 83 ec 28          	sub    rsp,0x28
   15834:	48 89 7c 24 18       	mov    QWORD PTR [rsp+0x18],rdi
   15839:	48 89 74 24 20       	mov    QWORD PTR [rsp+0x20],rsi
   1583e:	48 89 7c 24 08       	mov    QWORD PTR [rsp+0x8],rdi
   15843:	48 89 74 24 10       	mov    QWORD PTR [rsp+0x10],rsi
   15848:	48 8d 7c 24 08       	lea    rdi,[rsp+0x8]
   1584d:	e8 be 10 00 00       	call   16910 <_ZN6x86_6410structures6paging10page_table1_16InternalBitFlags4bits17h473cdb8cdb1f9ed0E>
   15852:	48 89 04 24          	mov    QWORD PTR [rsp],rax
   15856:	48 8d 7c 24 10       	lea    rdi,[rsp+0x10]
   1585b:	e8 b0 10 00 00       	call   16910 <_ZN6x86_6410structures6paging10page_table1_16InternalBitFlags4bits17h473cdb8cdb1f9ed0E>
   15860:	48 8b 3c 24          	mov    rdi,QWORD PTR [rsp]
   15864:	48 21 c7             	and    rdi,rax
   15867:	e8 14 00 00 00       	call   15880 <_ZN6x86_6410structures6paging10page_table1_16InternalBitFlags16from_bits_retain17hf2d6cc308f5108f1E>
   1586c:	48 83 c4 28          	add    rsp,0x28
   15870:	c3                   	ret
   15871:	cc                   	int3
   15872:	cc                   	int3
   15873:	cc                   	int3
   15874:	cc                   	int3
   15875:	cc                   	int3
   15876:	cc                   	int3
   15877:	cc                   	int3
   15878:	cc                   	int3
   15879:	cc                   	int3
   1587a:	cc                   	int3
   1587b:	cc                   	int3
   1587c:	cc                   	int3
   1587d:	cc                   	int3
   1587e:	cc                   	int3
   1587f:	cc                   	int3

0000000000015880 <_ZN6x86_6410structures6paging10page_table1_16InternalBitFlags16from_bits_retain17hf2d6cc308f5108f1E>:
   15880:	50                   	push   rax
   15881:	48 89 f8             	mov    rax,rdi
   15884:	48 89 04 24          	mov    QWORD PTR [rsp],rax
   15888:	59                   	pop    rcx
   15889:	c3                   	ret
   1588a:	cc                   	int3
   1588b:	cc                   	int3
   1588c:	cc                   	int3
   1588d:	cc                   	int3
   1588e:	cc                   	int3
   1588f:	cc                   	int3

0000000000015890 <_ZN6x86_6410structures6paging10page_table1_16InternalBitFlags18from_bits_truncate17h4b55f9e308420012E>:
   15890:	48 83 ec 18          	sub    rsp,0x18
   15894:	48 89 3c 24          	mov    QWORD PTR [rsp],rdi
   15898:	48 89 7c 24 10       	mov    QWORD PTR [rsp+0x10],rdi
   1589d:	e8 1e 00 00 00       	call   158c0 <_ZN6x86_6410structures6paging10page_table1_16InternalBitFlags3all17hdcb0cfe37fa2fefbE>
   158a2:	48 89 44 24 08       	mov    QWORD PTR [rsp+0x8],rax
   158a7:	48 8d 7c 24 08       	lea    rdi,[rsp+0x8]
   158ac:	e8 5f 10 00 00       	call   16910 <_ZN6x86_6410structures6paging10page_table1_16InternalBitFlags4bits17h473cdb8cdb1f9ed0E>
   158b1:	48 89 c1             	mov    rcx,rax
   158b4:	48 8b 04 24          	mov    rax,QWORD PTR [rsp]
   158b8:	48 21 c8             	and    rax,rcx
   158bb:	48 83 c4 18          	add    rsp,0x18
   158bf:	c3                   	ret

00000000000158c0 <_ZN6x86_6410structures6paging10page_table1_16InternalBitFlags3all17hdcb0cfe37fa2fefbE>:
   158c0:	48 81 ec 58 02 00 00 	sub    rsp,0x258
   158c7:	48 c7 84 24 88 01 00 	mov    QWORD PTR [rsp+0x188],0x0
   158ce:	00 00 00 00 00 
   158d3:	48 c7 84 24 90 01 00 	mov    QWORD PTR [rsp+0x190],0x0
   158da:	00 00 00 00 00 
   158df:	48 8b 84 24 90 01 00 	mov    rax,QWORD PTR [rsp+0x190]
   158e6:	00 
   158e7:	48 89 84 24 80 01 00 	mov    QWORD PTR [rsp+0x180],rax
   158ee:	00 
   158ef:	48 83 f8 18          	cmp    rax,0x18
   158f3:	73 5b                	jae    15950 <_ZN6x86_6410structures6paging10page_table1_16InternalBitFlags3all17hdcb0cfe37fa2fefbE+0x90>
   158f5:	48 8b 84 24 80 01 00 	mov    rax,QWORD PTR [rsp+0x180]
   158fc:	00 
   158fd:	48 8d 0c 40          	lea    rcx,[rax+rax*2]
   15901:	48 8d 05 b8 8f 02 00 	lea    rax,[rip+0x28fb8]        # 3e8c0 <memmove+0x1190>
   15908:	48 8d 3c c8          	lea    rdi,[rax+rcx*8]
   1590c:	48 8b 05 65 17 03 00 	mov    rax,QWORD PTR [rip+0x31765]        # 47078 <_DYNAMIC+0x1e0>
   15913:	ff d0                	call   rax
   15915:	48 89 c7             	mov    rdi,rax
   15918:	e8 03 11 00 00       	call   16a20 <_ZN6x86_6410structures6paging10page_table1_72_$LT$impl$u20$x86_64..structures..paging..page_table..PageTableFlags$GT$4bits17h1535141e69d046feE>
   1591d:	48 89 84 24 98 01 00 	mov    QWORD PTR [rsp+0x198],rax
   15924:	00 
   15925:	48 0b 84 24 88 01 00 	or     rax,QWORD PTR [rsp+0x188]
   1592c:	00 
   1592d:	48 89 84 24 88 01 00 	mov    QWORD PTR [rsp+0x188],rax
   15934:	00 
   15935:	48 8b 84 24 90 01 00 	mov    rax,QWORD PTR [rsp+0x190]
   1593c:	00 
   1593d:	48 83 c0 01          	add    rax,0x1
   15941:	48 89 84 24 78 01 00 	mov    QWORD PTR [rsp+0x178],rax
   15948:	00 
   15949:	0f 92 c0             	setb   al
   1594c:	72 47                	jb     15995 <_ZN6x86_6410structures6paging10page_table1_16InternalBitFlags3all17hdcb0cfe37fa2fefbE+0xd5>
   1594e:	eb 1d                	jmp    1596d <_ZN6x86_6410structures6paging10page_table1_16InternalBitFlags3all17hdcb0cfe37fa2fefbE+0xad>
   15950:	48 8b bc 24 80 01 00 	mov    rdi,QWORD PTR [rsp+0x180]
   15957:	00 
   15958:	48 8d 15 a1 91 02 00 	lea    rdx,[rip+0x291a1]        # 3eb00 <memmove+0x13d0>
   1595f:	48 8b 05 f2 16 03 00 	mov    rax,QWORD PTR [rip+0x316f2]        # 47058 <_DYNAMIC+0x1c0>
   15966:	be 18 00 00 00       	mov    esi,0x18
   1596b:	ff d0                	call   rax
   1596d:	48 8b 84 24 78 01 00 	mov    rax,QWORD PTR [rsp+0x178]
   15974:	00 
   15975:	48 89 84 24 90 01 00 	mov    QWORD PTR [rsp+0x190],rax
   1597c:	00 
   1597d:	48 8b 84 24 90 01 00 	mov    rax,QWORD PTR [rsp+0x190]
   15984:	00 
   15985:	48 89 84 24 70 01 00 	mov    QWORD PTR [rsp+0x170],rax
   1598c:	00 
   1598d:	48 83 f8 18          	cmp    rax,0x18
   15991:	72 12                	jb     159a5 <_ZN6x86_6410structures6paging10page_table1_16InternalBitFlags3all17hdcb0cfe37fa2fefbE+0xe5>
   15993:	eb 6b                	jmp    15a00 <_ZN6x86_6410structures6paging10page_table1_16InternalBitFlags3all17hdcb0cfe37fa2fefbE+0x140>
   15995:	48 8d 3d 64 91 02 00 	lea    rdi,[rip+0x29164]        # 3eb00 <memmove+0x13d0>
   1599c:	48 8b 05 dd 16 03 00 	mov    rax,QWORD PTR [rip+0x316dd]        # 47080 <_DYNAMIC+0x1e8>
   159a3:	ff d0                	call   rax
   159a5:	48 8b 84 24 70 01 00 	mov    rax,QWORD PTR [rsp+0x170]
   159ac:	00 
   159ad:	48 8d 0c 40          	lea    rcx,[rax+rax*2]
   159b1:	48 8d 05 08 8f 02 00 	lea    rax,[rip+0x28f08]        # 3e8c0 <memmove+0x1190>
   159b8:	48 8d 3c c8          	lea    rdi,[rax+rcx*8]
   159bc:	48 8b 05 b5 16 03 00 	mov    rax,QWORD PTR [rip+0x316b5]        # 47078 <_DYNAMIC+0x1e0>
   159c3:	ff d0                	call   rax
   159c5:	48 89 c7             	mov    rdi,rax
   159c8:	e8 53 10 00 00       	call   16a20 <_ZN6x86_6410structures6paging10page_table1_72_$LT$impl$u20$x86_64..structures..paging..page_table..PageTableFlags$GT$4bits17h1535141e69d046feE>
   159cd:	48 89 84 24 a0 01 00 	mov    QWORD PTR [rsp+0x1a0],rax
   159d4:	00 
   159d5:	48 0b 84 24 88 01 00 	or     rax,QWORD PTR [rsp+0x188]
   159dc:	00 
   159dd:	48 89 84 24 88 01 00 	mov    QWORD PTR [rsp+0x188],rax
   159e4:	00 
   159e5:	48 8b 84 24 90 01 00 	mov    rax,QWORD PTR [rsp+0x190]
   159ec:	00 
   159ed:	48 83 c0 01          	add    rax,0x1
   159f1:	48 89 84 24 68 01 00 	mov    QWORD PTR [rsp+0x168],rax
   159f8:	00 
   159f9:	0f 92 c0             	setb   al
   159fc:	72 47                	jb     15a45 <_ZN6x86_6410structures6paging10page_table1_16InternalBitFlags3all17hdcb0cfe37fa2fefbE+0x185>
   159fe:	eb 1d                	jmp    15a1d <_ZN6x86_6410structures6paging10page_table1_16InternalBitFlags3all17hdcb0cfe37fa2fefbE+0x15d>
   15a00:	48 8b bc 24 70 01 00 	mov    rdi,QWORD PTR [rsp+0x170]
   15a07:	00 
   15a08:	48 8d 15 f1 90 02 00 	lea    rdx,[rip+0x290f1]        # 3eb00 <memmove+0x13d0>
   15a0f:	48 8b 05 42 16 03 00 	mov    rax,QWORD PTR [rip+0x31642]        # 47058 <_DYNAMIC+0x1c0>
   15a16:	be 18 00 00 00       	mov    esi,0x18
   15a1b:	ff d0                	call   rax
   15a1d:	48 8b 84 24 68 01 00 	mov    rax,QWORD PTR [rsp+0x168]
   15a24:	00 
   15a25:	48 89 84 24 90 01 00 	mov    QWORD PTR [rsp+0x190],rax
   15a2c:	00 
   15a2d:	48 8b 84 24 90 01 00 	mov    rax,QWORD PTR [rsp+0x190]
   15a34:	00 
   15a35:	48 89 84 24 60 01 00 	mov    QWORD PTR [rsp+0x160],rax
   15a3c:	00 
   15a3d:	48 83 f8 18          	cmp    rax,0x18
   15a41:	72 12                	jb     15a55 <_ZN6x86_6410structures6paging10page_table1_16InternalBitFlags3all17hdcb0cfe37fa2fefbE+0x195>
   15a43:	eb 6b                	jmp    15ab0 <_ZN6x86_6410structures6paging10page_table1_16InternalBitFlags3all17hdcb0cfe37fa2fefbE+0x1f0>
   15a45:	48 8d 3d b4 90 02 00 	lea    rdi,[rip+0x290b4]        # 3eb00 <memmove+0x13d0>
   15a4c:	48 8b 05 2d 16 03 00 	mov    rax,QWORD PTR [rip+0x3162d]        # 47080 <_DYNAMIC+0x1e8>
   15a53:	ff d0                	call   rax
   15a55:	48 8b 84 24 60 01 00 	mov    rax,QWORD PTR [rsp+0x160]
   15a5c:	00 
   15a5d:	48 8d 0c 40          	lea    rcx,[rax+rax*2]
   15a61:	48 8d 05 58 8e 02 00 	lea    rax,[rip+0x28e58]        # 3e8c0 <memmove+0x1190>
   15a68:	48 8d 3c c8          	lea    rdi,[rax+rcx*8]
   15a6c:	48 8b 05 05 16 03 00 	mov    rax,QWORD PTR [rip+0x31605]        # 47078 <_DYNAMIC+0x1e0>
   15a73:	ff d0                	call   rax
   15a75:	48 89 c7             	mov    rdi,rax
   15a78:	e8 a3 0f 00 00       	call   16a20 <_ZN6x86_6410structures6paging10page_table1_72_$LT$impl$u20$x86_64..structures..paging..page_table..PageTableFlags$GT$4bits17h1535141e69d046feE>
   15a7d:	48 89 84 24 a8 01 00 	mov    QWORD PTR [rsp+0x1a8],rax
   15a84:	00 
   15a85:	48 0b 84 24 88 01 00 	or     rax,QWORD PTR [rsp+0x188]
   15a8c:	00 
   15a8d:	48 89 84 24 88 01 00 	mov    QWORD PTR [rsp+0x188],rax
   15a94:	00 
   15a95:	48 8b 84 24 90 01 00 	mov    rax,QWORD PTR [rsp+0x190]
   15a9c:	00 
   15a9d:	48 83 c0 01          	add    rax,0x1
   15aa1:	48 89 84 24 58 01 00 	mov    QWORD PTR [rsp+0x158],rax
   15aa8:	00 
   15aa9:	0f 92 c0             	setb   al
   15aac:	72 47                	jb     15af5 <_ZN6x86_6410structures6paging10page_table1_16InternalBitFlags3all17hdcb0cfe37fa2fefbE+0x235>
   15aae:	eb 1d                	jmp    15acd <_ZN6x86_6410structures6paging10page_table1_16InternalBitFlags3all17hdcb0cfe37fa2fefbE+0x20d>
   15ab0:	48 8b bc 24 60 01 00 	mov    rdi,QWORD PTR [rsp+0x160]
   15ab7:	00 
   15ab8:	48 8d 15 41 90 02 00 	lea    rdx,[rip+0x29041]        # 3eb00 <memmove+0x13d0>
   15abf:	48 8b 05 92 15 03 00 	mov    rax,QWORD PTR [rip+0x31592]        # 47058 <_DYNAMIC+0x1c0>
   15ac6:	be 18 00 00 00       	mov    esi,0x18
   15acb:	ff d0                	call   rax
   15acd:	48 8b 84 24 58 01 00 	mov    rax,QWORD PTR [rsp+0x158]
   15ad4:	00 
   15ad5:	48 89 84 24 90 01 00 	mov    QWORD PTR [rsp+0x190],rax
   15adc:	00 
   15add:	48 8b 84 24 90 01 00 	mov    rax,QWORD PTR [rsp+0x190]
   15ae4:	00 
   15ae5:	48 89 84 24 50 01 00 	mov    QWORD PTR [rsp+0x150],rax
   15aec:	00 
   15aed:	48 83 f8 18          	cmp    rax,0x18
   15af1:	72 12                	jb     15b05 <_ZN6x86_6410structures6paging10page_table1_16InternalBitFlags3all17hdcb0cfe37fa2fefbE+0x245>
   15af3:	eb 6b                	jmp    15b60 <_ZN6x86_6410structures6paging10page_table1_16InternalBitFlags3all17hdcb0cfe37fa2fefbE+0x2a0>
   15af5:	48 8d 3d 04 90 02 00 	lea    rdi,[rip+0x29004]        # 3eb00 <memmove+0x13d0>
   15afc:	48 8b 05 7d 15 03 00 	mov    rax,QWORD PTR [rip+0x3157d]        # 47080 <_DYNAMIC+0x1e8>
   15b03:	ff d0                	call   rax
   15b05:	48 8b 84 24 50 01 00 	mov    rax,QWORD PTR [rsp+0x150]
   15b0c:	00 
   15b0d:	48 8d 0c 40          	lea    rcx,[rax+rax*2]
   15b11:	48 8d 05 a8 8d 02 00 	lea    rax,[rip+0x28da8]        # 3e8c0 <memmove+0x1190>
   15b18:	48 8d 3c c8          	lea    rdi,[rax+rcx*8]
   15b1c:	48 8b 05 55 15 03 00 	mov    rax,QWORD PTR [rip+0x31555]        # 47078 <_DYNAMIC+0x1e0>
   15b23:	ff d0                	call   rax
   15b25:	48 89 c7             	mov    rdi,rax
   15b28:	e8 f3 0e 00 00       	call   16a20 <_ZN6x86_6410structures6paging10page_table1_72_$LT$impl$u20$x86_64..structures..paging..page_table..PageTableFlags$GT$4bits17h1535141e69d046feE>
   15b2d:	48 89 84 24 b0 01 00 	mov    QWORD PTR [rsp+0x1b0],rax
   15b34:	00 
   15b35:	48 0b 84 24 88 01 00 	or     rax,QWORD PTR [rsp+0x188]
   15b3c:	00 
   15b3d:	48 89 84 24 88 01 00 	mov    QWORD PTR [rsp+0x188],rax
   15b44:	00 
   15b45:	48 8b 84 24 90 01 00 	mov    rax,QWORD PTR [rsp+0x190]
   15b4c:	00 
   15b4d:	48 83 c0 01          	add    rax,0x1
   15b51:	48 89 84 24 48 01 00 	mov    QWORD PTR [rsp+0x148],rax
   15b58:	00 
   15b59:	0f 92 c0             	setb   al
   15b5c:	72 47                	jb     15ba5 <_ZN6x86_6410structures6paging10page_table1_16InternalBitFlags3all17hdcb0cfe37fa2fefbE+0x2e5>
   15b5e:	eb 1d                	jmp    15b7d <_ZN6x86_6410structures6paging10page_table1_16InternalBitFlags3all17hdcb0cfe37fa2fefbE+0x2bd>
   15b60:	48 8b bc 24 50 01 00 	mov    rdi,QWORD PTR [rsp+0x150]
   15b67:	00 
   15b68:	48 8d 15 91 8f 02 00 	lea    rdx,[rip+0x28f91]        # 3eb00 <memmove+0x13d0>
   15b6f:	48 8b 05 e2 14 03 00 	mov    rax,QWORD PTR [rip+0x314e2]        # 47058 <_DYNAMIC+0x1c0>
   15b76:	be 18 00 00 00       	mov    esi,0x18
   15b7b:	ff d0                	call   rax
   15b7d:	48 8b 84 24 48 01 00 	mov    rax,QWORD PTR [rsp+0x148]
   15b84:	00 
   15b85:	48 89 84 24 90 01 00 	mov    QWORD PTR [rsp+0x190],rax
   15b8c:	00 
   15b8d:	48 8b 84 24 90 01 00 	mov    rax,QWORD PTR [rsp+0x190]
   15b94:	00 
   15b95:	48 89 84 24 40 01 00 	mov    QWORD PTR [rsp+0x140],rax
   15b9c:	00 
   15b9d:	48 83 f8 18          	cmp    rax,0x18
   15ba1:	72 12                	jb     15bb5 <_ZN6x86_6410structures6paging10page_table1_16InternalBitFlags3all17hdcb0cfe37fa2fefbE+0x2f5>
   15ba3:	eb 6b                	jmp    15c10 <_ZN6x86_6410structures6paging10page_table1_16InternalBitFlags3all17hdcb0cfe37fa2fefbE+0x350>
   15ba5:	48 8d 3d 54 8f 02 00 	lea    rdi,[rip+0x28f54]        # 3eb00 <memmove+0x13d0>
   15bac:	48 8b 05 cd 14 03 00 	mov    rax,QWORD PTR [rip+0x314cd]        # 47080 <_DYNAMIC+0x1e8>
   15bb3:	ff d0                	call   rax
   15bb5:	48 8b 84 24 40 01 00 	mov    rax,QWORD PTR [rsp+0x140]
   15bbc:	00 
   15bbd:	48 8d 0c 40          	lea    rcx,[rax+rax*2]
   15bc1:	48 8d 05 f8 8c 02 00 	lea    rax,[rip+0x28cf8]        # 3e8c0 <memmove+0x1190>
   15bc8:	48 8d 3c c8          	lea    rdi,[rax+rcx*8]
   15bcc:	48 8b 05 a5 14 03 00 	mov    rax,QWORD PTR [rip+0x314a5]        # 47078 <_DYNAMIC+0x1e0>
   15bd3:	ff d0                	call   rax
   15bd5:	48 89 c7             	mov    rdi,rax
   15bd8:	e8 43 0e 00 00       	call   16a20 <_ZN6x86_6410structures6paging10page_table1_72_$LT$impl$u20$x86_64..structures..paging..page_table..PageTableFlags$GT$4bits17h1535141e69d046feE>
   15bdd:	48 89 84 24 b8 01 00 	mov    QWORD PTR [rsp+0x1b8],rax
   15be4:	00 
   15be5:	48 0b 84 24 88 01 00 	or     rax,QWORD PTR [rsp+0x188]
   15bec:	00 
   15bed:	48 89 84 24 88 01 00 	mov    QWORD PTR [rsp+0x188],rax
   15bf4:	00 
   15bf5:	48 8b 84 24 90 01 00 	mov    rax,QWORD PTR [rsp+0x190]
   15bfc:	00 
   15bfd:	48 83 c0 01          	add    rax,0x1
   15c01:	48 89 84 24 38 01 00 	mov    QWORD PTR [rsp+0x138],rax
   15c08:	00 
   15c09:	0f 92 c0             	setb   al
   15c0c:	72 47                	jb     15c55 <_ZN6x86_6410structures6paging10page_table1_16InternalBitFlags3all17hdcb0cfe37fa2fefbE+0x395>
   15c0e:	eb 1d                	jmp    15c2d <_ZN6x86_6410structures6paging10page_table1_16InternalBitFlags3all17hdcb0cfe37fa2fefbE+0x36d>
   15c10:	48 8b bc 24 40 01 00 	mov    rdi,QWORD PTR [rsp+0x140]
   15c17:	00 
   15c18:	48 8d 15 e1 8e 02 00 	lea    rdx,[rip+0x28ee1]        # 3eb00 <memmove+0x13d0>
   15c1f:	48 8b 05 32 14 03 00 	mov    rax,QWORD PTR [rip+0x31432]        # 47058 <_DYNAMIC+0x1c0>
   15c26:	be 18 00 00 00       	mov    esi,0x18
   15c2b:	ff d0                	call   rax
   15c2d:	48 8b 84 24 38 01 00 	mov    rax,QWORD PTR [rsp+0x138]
   15c34:	00 
   15c35:	48 89 84 24 90 01 00 	mov    QWORD PTR [rsp+0x190],rax
   15c3c:	00 
   15c3d:	48 8b 84 24 90 01 00 	mov    rax,QWORD PTR [rsp+0x190]
   15c44:	00 
   15c45:	48 89 84 24 30 01 00 	mov    QWORD PTR [rsp+0x130],rax
   15c4c:	00 
   15c4d:	48 83 f8 18          	cmp    rax,0x18
   15c51:	72 12                	jb     15c65 <_ZN6x86_6410structures6paging10page_table1_16InternalBitFlags3all17hdcb0cfe37fa2fefbE+0x3a5>
   15c53:	eb 6b                	jmp    15cc0 <_ZN6x86_6410structures6paging10page_table1_16InternalBitFlags3all17hdcb0cfe37fa2fefbE+0x400>
   15c55:	48 8d 3d a4 8e 02 00 	lea    rdi,[rip+0x28ea4]        # 3eb00 <memmove+0x13d0>
   15c5c:	48 8b 05 1d 14 03 00 	mov    rax,QWORD PTR [rip+0x3141d]        # 47080 <_DYNAMIC+0x1e8>
   15c63:	ff d0                	call   rax
   15c65:	48 8b 84 24 30 01 00 	mov    rax,QWORD PTR [rsp+0x130]
   15c6c:	00 
   15c6d:	48 8d 0c 40          	lea    rcx,[rax+rax*2]
   15c71:	48 8d 05 48 8c 02 00 	lea    rax,[rip+0x28c48]        # 3e8c0 <memmove+0x1190>
   15c78:	48 8d 3c c8          	lea    rdi,[rax+rcx*8]
   15c7c:	48 8b 05 f5 13 03 00 	mov    rax,QWORD PTR [rip+0x313f5]        # 47078 <_DYNAMIC+0x1e0>
   15c83:	ff d0                	call   rax
   15c85:	48 89 c7             	mov    rdi,rax
   15c88:	e8 93 0d 00 00       	call   16a20 <_ZN6x86_6410structures6paging10page_table1_72_$LT$impl$u20$x86_64..structures..paging..page_table..PageTableFlags$GT$4bits17h1535141e69d046feE>
   15c8d:	48 89 84 24 c0 01 00 	mov    QWORD PTR [rsp+0x1c0],rax
   15c94:	00 
   15c95:	48 0b 84 24 88 01 00 	or     rax,QWORD PTR [rsp+0x188]
   15c9c:	00 
   15c9d:	48 89 84 24 88 01 00 	mov    QWORD PTR [rsp+0x188],rax
   15ca4:	00 
   15ca5:	48 8b 84 24 90 01 00 	mov    rax,QWORD PTR [rsp+0x190]
   15cac:	00 
   15cad:	48 83 c0 01          	add    rax,0x1
   15cb1:	48 89 84 24 28 01 00 	mov    QWORD PTR [rsp+0x128],rax
   15cb8:	00 
   15cb9:	0f 92 c0             	setb   al
   15cbc:	72 47                	jb     15d05 <_ZN6x86_6410structures6paging10page_table1_16InternalBitFlags3all17hdcb0cfe37fa2fefbE+0x445>
   15cbe:	eb 1d                	jmp    15cdd <_ZN6x86_6410structures6paging10page_table1_16InternalBitFlags3all17hdcb0cfe37fa2fefbE+0x41d>
   15cc0:	48 8b bc 24 30 01 00 	mov    rdi,QWORD PTR [rsp+0x130]
   15cc7:	00 
   15cc8:	48 8d 15 31 8e 02 00 	lea    rdx,[rip+0x28e31]        # 3eb00 <memmove+0x13d0>
   15ccf:	48 8b 05 82 13 03 00 	mov    rax,QWORD PTR [rip+0x31382]        # 47058 <_DYNAMIC+0x1c0>
   15cd6:	be 18 00 00 00       	mov    esi,0x18
   15cdb:	ff d0                	call   rax
   15cdd:	48 8b 84 24 28 01 00 	mov    rax,QWORD PTR [rsp+0x128]
   15ce4:	00 
   15ce5:	48 89 84 24 90 01 00 	mov    QWORD PTR [rsp+0x190],rax
   15cec:	00 
   15ced:	48 8b 84 24 90 01 00 	mov    rax,QWORD PTR [rsp+0x190]
   15cf4:	00 
   15cf5:	48 89 84 24 20 01 00 	mov    QWORD PTR [rsp+0x120],rax
   15cfc:	00 
   15cfd:	48 83 f8 18          	cmp    rax,0x18
   15d01:	72 12                	jb     15d15 <_ZN6x86_6410structures6paging10page_table1_16InternalBitFlags3all17hdcb0cfe37fa2fefbE+0x455>
   15d03:	eb 6b                	jmp    15d70 <_ZN6x86_6410structures6paging10page_table1_16InternalBitFlags3all17hdcb0cfe37fa2fefbE+0x4b0>
   15d05:	48 8d 3d f4 8d 02 00 	lea    rdi,[rip+0x28df4]        # 3eb00 <memmove+0x13d0>
   15d0c:	48 8b 05 6d 13 03 00 	mov    rax,QWORD PTR [rip+0x3136d]        # 47080 <_DYNAMIC+0x1e8>
   15d13:	ff d0                	call   rax
   15d15:	48 8b 84 24 20 01 00 	mov    rax,QWORD PTR [rsp+0x120]
   15d1c:	00 
   15d1d:	48 8d 0c 40          	lea    rcx,[rax+rax*2]
   15d21:	48 8d 05 98 8b 02 00 	lea    rax,[rip+0x28b98]        # 3e8c0 <memmove+0x1190>
   15d28:	48 8d 3c c8          	lea    rdi,[rax+rcx*8]
   15d2c:	48 8b 05 45 13 03 00 	mov    rax,QWORD PTR [rip+0x31345]        # 47078 <_DYNAMIC+0x1e0>
   15d33:	ff d0                	call   rax
   15d35:	48 89 c7             	mov    rdi,rax
   15d38:	e8 e3 0c 00 00       	call   16a20 <_ZN6x86_6410structures6paging10page_table1_72_$LT$impl$u20$x86_64..structures..paging..page_table..PageTableFlags$GT$4bits17h1535141e69d046feE>
   15d3d:	48 89 84 24 c8 01 00 	mov    QWORD PTR [rsp+0x1c8],rax
   15d44:	00 
   15d45:	48 0b 84 24 88 01 00 	or     rax,QWORD PTR [rsp+0x188]
   15d4c:	00 
   15d4d:	48 89 84 24 88 01 00 	mov    QWORD PTR [rsp+0x188],rax
   15d54:	00 
   15d55:	48 8b 84 24 90 01 00 	mov    rax,QWORD PTR [rsp+0x190]
   15d5c:	00 
   15d5d:	48 83 c0 01          	add    rax,0x1
   15d61:	48 89 84 24 18 01 00 	mov    QWORD PTR [rsp+0x118],rax
   15d68:	00 
   15d69:	0f 92 c0             	setb   al
   15d6c:	72 47                	jb     15db5 <_ZN6x86_6410structures6paging10page_table1_16InternalBitFlags3all17hdcb0cfe37fa2fefbE+0x4f5>
   15d6e:	eb 1d                	jmp    15d8d <_ZN6x86_6410structures6paging10page_table1_16InternalBitFlags3all17hdcb0cfe37fa2fefbE+0x4cd>
   15d70:	48 8b bc 24 20 01 00 	mov    rdi,QWORD PTR [rsp+0x120]
   15d77:	00 
   15d78:	48 8d 15 81 8d 02 00 	lea    rdx,[rip+0x28d81]        # 3eb00 <memmove+0x13d0>
   15d7f:	48 8b 05 d2 12 03 00 	mov    rax,QWORD PTR [rip+0x312d2]        # 47058 <_DYNAMIC+0x1c0>
   15d86:	be 18 00 00 00       	mov    esi,0x18
   15d8b:	ff d0                	call   rax
   15d8d:	48 8b 84 24 18 01 00 	mov    rax,QWORD PTR [rsp+0x118]
   15d94:	00 
   15d95:	48 89 84 24 90 01 00 	mov    QWORD PTR [rsp+0x190],rax
   15d9c:	00 
   15d9d:	48 8b 84 24 90 01 00 	mov    rax,QWORD PTR [rsp+0x190]
   15da4:	00 
   15da5:	48 89 84 24 10 01 00 	mov    QWORD PTR [rsp+0x110],rax
   15dac:	00 
   15dad:	48 83 f8 18          	cmp    rax,0x18
   15db1:	72 12                	jb     15dc5 <_ZN6x86_6410structures6paging10page_table1_16InternalBitFlags3all17hdcb0cfe37fa2fefbE+0x505>
   15db3:	eb 6b                	jmp    15e20 <_ZN6x86_6410structures6paging10page_table1_16InternalBitFlags3all17hdcb0cfe37fa2fefbE+0x560>
   15db5:	48 8d 3d 44 8d 02 00 	lea    rdi,[rip+0x28d44]        # 3eb00 <memmove+0x13d0>
   15dbc:	48 8b 05 bd 12 03 00 	mov    rax,QWORD PTR [rip+0x312bd]        # 47080 <_DYNAMIC+0x1e8>
   15dc3:	ff d0                	call   rax
   15dc5:	48 8b 84 24 10 01 00 	mov    rax,QWORD PTR [rsp+0x110]
   15dcc:	00 
   15dcd:	48 8d 0c 40          	lea    rcx,[rax+rax*2]
   15dd1:	48 8d 05 e8 8a 02 00 	lea    rax,[rip+0x28ae8]        # 3e8c0 <memmove+0x1190>
   15dd8:	48 8d 3c c8          	lea    rdi,[rax+rcx*8]
   15ddc:	48 8b 05 95 12 03 00 	mov    rax,QWORD PTR [rip+0x31295]        # 47078 <_DYNAMIC+0x1e0>
   15de3:	ff d0                	call   rax
   15de5:	48 89 c7             	mov    rdi,rax
   15de8:	e8 33 0c 00 00       	call   16a20 <_ZN6x86_6410structures6paging10page_table1_72_$LT$impl$u20$x86_64..structures..paging..page_table..PageTableFlags$GT$4bits17h1535141e69d046feE>
   15ded:	48 89 84 24 d0 01 00 	mov    QWORD PTR [rsp+0x1d0],rax
   15df4:	00 
   15df5:	48 0b 84 24 88 01 00 	or     rax,QWORD PTR [rsp+0x188]
   15dfc:	00 
   15dfd:	48 89 84 24 88 01 00 	mov    QWORD PTR [rsp+0x188],rax
   15e04:	00 
   15e05:	48 8b 84 24 90 01 00 	mov    rax,QWORD PTR [rsp+0x190]
   15e0c:	00 
   15e0d:	48 83 c0 01          	add    rax,0x1
   15e11:	48 89 84 24 08 01 00 	mov    QWORD PTR [rsp+0x108],rax
   15e18:	00 
   15e19:	0f 92 c0             	setb   al
   15e1c:	72 47                	jb     15e65 <_ZN6x86_6410structures6paging10page_table1_16InternalBitFlags3all17hdcb0cfe37fa2fefbE+0x5a5>
   15e1e:	eb 1d                	jmp    15e3d <_ZN6x86_6410structures6paging10page_table1_16InternalBitFlags3all17hdcb0cfe37fa2fefbE+0x57d>
   15e20:	48 8b bc 24 10 01 00 	mov    rdi,QWORD PTR [rsp+0x110]
   15e27:	00 
   15e28:	48 8d 15 d1 8c 02 00 	lea    rdx,[rip+0x28cd1]        # 3eb00 <memmove+0x13d0>
   15e2f:	48 8b 05 22 12 03 00 	mov    rax,QWORD PTR [rip+0x31222]        # 47058 <_DYNAMIC+0x1c0>
   15e36:	be 18 00 00 00       	mov    esi,0x18
   15e3b:	ff d0                	call   rax
   15e3d:	48 8b 84 24 08 01 00 	mov    rax,QWORD PTR [rsp+0x108]
   15e44:	00 
   15e45:	48 89 84 24 90 01 00 	mov    QWORD PTR [rsp+0x190],rax
   15e4c:	00 
   15e4d:	48 8b 84 24 90 01 00 	mov    rax,QWORD PTR [rsp+0x190]
   15e54:	00 
   15e55:	48 89 84 24 00 01 00 	mov    QWORD PTR [rsp+0x100],rax
   15e5c:	00 
   15e5d:	48 83 f8 18          	cmp    rax,0x18
   15e61:	72 12                	jb     15e75 <_ZN6x86_6410structures6paging10page_table1_16InternalBitFlags3all17hdcb0cfe37fa2fefbE+0x5b5>
   15e63:	eb 6b                	jmp    15ed0 <_ZN6x86_6410structures6paging10page_table1_16InternalBitFlags3all17hdcb0cfe37fa2fefbE+0x610>
   15e65:	48 8d 3d 94 8c 02 00 	lea    rdi,[rip+0x28c94]        # 3eb00 <memmove+0x13d0>
   15e6c:	48 8b 05 0d 12 03 00 	mov    rax,QWORD PTR [rip+0x3120d]        # 47080 <_DYNAMIC+0x1e8>
   15e73:	ff d0                	call   rax
   15e75:	48 8b 84 24 00 01 00 	mov    rax,QWORD PTR [rsp+0x100]
   15e7c:	00 
   15e7d:	48 8d 0c 40          	lea    rcx,[rax+rax*2]
   15e81:	48 8d 05 38 8a 02 00 	lea    rax,[rip+0x28a38]        # 3e8c0 <memmove+0x1190>
   15e88:	48 8d 3c c8          	lea    rdi,[rax+rcx*8]
   15e8c:	48 8b 05 e5 11 03 00 	mov    rax,QWORD PTR [rip+0x311e5]        # 47078 <_DYNAMIC+0x1e0>
   15e93:	ff d0                	call   rax
   15e95:	48 89 c7             	mov    rdi,rax
   15e98:	e8 83 0b 00 00       	call   16a20 <_ZN6x86_6410structures6paging10page_table1_72_$LT$impl$u20$x86_64..structures..paging..page_table..PageTableFlags$GT$4bits17h1535141e69d046feE>
   15e9d:	48 89 84 24 d8 01 00 	mov    QWORD PTR [rsp+0x1d8],rax
   15ea4:	00 
   15ea5:	48 0b 84 24 88 01 00 	or     rax,QWORD PTR [rsp+0x188]
   15eac:	00 
   15ead:	48 89 84 24 88 01 00 	mov    QWORD PTR [rsp+0x188],rax
   15eb4:	00 
   15eb5:	48 8b 84 24 90 01 00 	mov    rax,QWORD PTR [rsp+0x190]
   15ebc:	00 
   15ebd:	48 83 c0 01          	add    rax,0x1
   15ec1:	48 89 84 24 f8 00 00 	mov    QWORD PTR [rsp+0xf8],rax
   15ec8:	00 
   15ec9:	0f 92 c0             	setb   al
   15ecc:	72 47                	jb     15f15 <_ZN6x86_6410structures6paging10page_table1_16InternalBitFlags3all17hdcb0cfe37fa2fefbE+0x655>
   15ece:	eb 1d                	jmp    15eed <_ZN6x86_6410structures6paging10page_table1_16InternalBitFlags3all17hdcb0cfe37fa2fefbE+0x62d>
   15ed0:	48 8b bc 24 00 01 00 	mov    rdi,QWORD PTR [rsp+0x100]
   15ed7:	00 
   15ed8:	48 8d 15 21 8c 02 00 	lea    rdx,[rip+0x28c21]        # 3eb00 <memmove+0x13d0>
   15edf:	48 8b 05 72 11 03 00 	mov    rax,QWORD PTR [rip+0x31172]        # 47058 <_DYNAMIC+0x1c0>
   15ee6:	be 18 00 00 00       	mov    esi,0x18
   15eeb:	ff d0                	call   rax
   15eed:	48 8b 84 24 f8 00 00 	mov    rax,QWORD PTR [rsp+0xf8]
   15ef4:	00 
   15ef5:	48 89 84 24 90 01 00 	mov    QWORD PTR [rsp+0x190],rax
   15efc:	00 
   15efd:	48 8b 84 24 90 01 00 	mov    rax,QWORD PTR [rsp+0x190]
   15f04:	00 
   15f05:	48 89 84 24 f0 00 00 	mov    QWORD PTR [rsp+0xf0],rax
   15f0c:	00 
   15f0d:	48 83 f8 18          	cmp    rax,0x18
   15f11:	72 12                	jb     15f25 <_ZN6x86_6410structures6paging10page_table1_16InternalBitFlags3all17hdcb0cfe37fa2fefbE+0x665>
   15f13:	eb 6b                	jmp    15f80 <_ZN6x86_6410structures6paging10page_table1_16InternalBitFlags3all17hdcb0cfe37fa2fefbE+0x6c0>
   15f15:	48 8d 3d e4 8b 02 00 	lea    rdi,[rip+0x28be4]        # 3eb00 <memmove+0x13d0>
   15f1c:	48 8b 05 5d 11 03 00 	mov    rax,QWORD PTR [rip+0x3115d]        # 47080 <_DYNAMIC+0x1e8>
   15f23:	ff d0                	call   rax
   15f25:	48 8b 84 24 f0 00 00 	mov    rax,QWORD PTR [rsp+0xf0]
   15f2c:	00 
   15f2d:	48 8d 0c 40          	lea    rcx,[rax+rax*2]
   15f31:	48 8d 05 88 89 02 00 	lea    rax,[rip+0x28988]        # 3e8c0 <memmove+0x1190>
   15f38:	48 8d 3c c8          	lea    rdi,[rax+rcx*8]
   15f3c:	48 8b 05 35 11 03 00 	mov    rax,QWORD PTR [rip+0x31135]        # 47078 <_DYNAMIC+0x1e0>
   15f43:	ff d0                	call   rax
   15f45:	48 89 c7             	mov    rdi,rax
   15f48:	e8 d3 0a 00 00       	call   16a20 <_ZN6x86_6410structures6paging10page_table1_72_$LT$impl$u20$x86_64..structures..paging..page_table..PageTableFlags$GT$4bits17h1535141e69d046feE>
   15f4d:	48 89 84 24 e0 01 00 	mov    QWORD PTR [rsp+0x1e0],rax
   15f54:	00 
   15f55:	48 0b 84 24 88 01 00 	or     rax,QWORD PTR [rsp+0x188]
   15f5c:	00 
   15f5d:	48 89 84 24 88 01 00 	mov    QWORD PTR [rsp+0x188],rax
   15f64:	00 
   15f65:	48 8b 84 24 90 01 00 	mov    rax,QWORD PTR [rsp+0x190]
   15f6c:	00 
   15f6d:	48 83 c0 01          	add    rax,0x1
   15f71:	48 89 84 24 e8 00 00 	mov    QWORD PTR [rsp+0xe8],rax
   15f78:	00 
   15f79:	0f 92 c0             	setb   al
   15f7c:	72 47                	jb     15fc5 <_ZN6x86_6410structures6paging10page_table1_16InternalBitFlags3all17hdcb0cfe37fa2fefbE+0x705>
   15f7e:	eb 1d                	jmp    15f9d <_ZN6x86_6410structures6paging10page_table1_16InternalBitFlags3all17hdcb0cfe37fa2fefbE+0x6dd>
   15f80:	48 8b bc 24 f0 00 00 	mov    rdi,QWORD PTR [rsp+0xf0]
   15f87:	00 
   15f88:	48 8d 15 71 8b 02 00 	lea    rdx,[rip+0x28b71]        # 3eb00 <memmove+0x13d0>
   15f8f:	48 8b 05 c2 10 03 00 	mov    rax,QWORD PTR [rip+0x310c2]        # 47058 <_DYNAMIC+0x1c0>
   15f96:	be 18 00 00 00       	mov    esi,0x18
   15f9b:	ff d0                	call   rax
   15f9d:	48 8b 84 24 e8 00 00 	mov    rax,QWORD PTR [rsp+0xe8]
   15fa4:	00 
   15fa5:	48 89 84 24 90 01 00 	mov    QWORD PTR [rsp+0x190],rax
   15fac:	00 
   15fad:	48 8b 84 24 90 01 00 	mov    rax,QWORD PTR [rsp+0x190]
   15fb4:	00 
   15fb5:	48 89 84 24 e0 00 00 	mov    QWORD PTR [rsp+0xe0],rax
   15fbc:	00 
   15fbd:	48 83 f8 18          	cmp    rax,0x18
   15fc1:	72 12                	jb     15fd5 <_ZN6x86_6410structures6paging10page_table1_16InternalBitFlags3all17hdcb0cfe37fa2fefbE+0x715>
   15fc3:	eb 6b                	jmp    16030 <_ZN6x86_6410structures6paging10page_table1_16InternalBitFlags3all17hdcb0cfe37fa2fefbE+0x770>
   15fc5:	48 8d 3d 34 8b 02 00 	lea    rdi,[rip+0x28b34]        # 3eb00 <memmove+0x13d0>
   15fcc:	48 8b 05 ad 10 03 00 	mov    rax,QWORD PTR [rip+0x310ad]        # 47080 <_DYNAMIC+0x1e8>
   15fd3:	ff d0                	call   rax
   15fd5:	48 8b 84 24 e0 00 00 	mov    rax,QWORD PTR [rsp+0xe0]
   15fdc:	00 
   15fdd:	48 8d 0c 40          	lea    rcx,[rax+rax*2]
   15fe1:	48 8d 05 d8 88 02 00 	lea    rax,[rip+0x288d8]        # 3e8c0 <memmove+0x1190>
   15fe8:	48 8d 3c c8          	lea    rdi,[rax+rcx*8]
   15fec:	48 8b 05 85 10 03 00 	mov    rax,QWORD PTR [rip+0x31085]        # 47078 <_DYNAMIC+0x1e0>
   15ff3:	ff d0                	call   rax
   15ff5:	48 89 c7             	mov    rdi,rax
   15ff8:	e8 23 0a 00 00       	call   16a20 <_ZN6x86_6410structures6paging10page_table1_72_$LT$impl$u20$x86_64..structures..paging..page_table..PageTableFlags$GT$4bits17h1535141e69d046feE>
   15ffd:	48 89 84 24 e8 01 00 	mov    QWORD PTR [rsp+0x1e8],rax
   16004:	00 
   16005:	48 0b 84 24 88 01 00 	or     rax,QWORD PTR [rsp+0x188]
   1600c:	00 
   1600d:	48 89 84 24 88 01 00 	mov    QWORD PTR [rsp+0x188],rax
   16014:	00 
   16015:	48 8b 84 24 90 01 00 	mov    rax,QWORD PTR [rsp+0x190]
   1601c:	00 
   1601d:	48 83 c0 01          	add    rax,0x1
   16021:	48 89 84 24 d8 00 00 	mov    QWORD PTR [rsp+0xd8],rax
   16028:	00 
   16029:	0f 92 c0             	setb   al
   1602c:	72 47                	jb     16075 <_ZN6x86_6410structures6paging10page_table1_16InternalBitFlags3all17hdcb0cfe37fa2fefbE+0x7b5>
   1602e:	eb 1d                	jmp    1604d <_ZN6x86_6410structures6paging10page_table1_16InternalBitFlags3all17hdcb0cfe37fa2fefbE+0x78d>
   16030:	48 8b bc 24 e0 00 00 	mov    rdi,QWORD PTR [rsp+0xe0]
   16037:	00 
   16038:	48 8d 15 c1 8a 02 00 	lea    rdx,[rip+0x28ac1]        # 3eb00 <memmove+0x13d0>
   1603f:	48 8b 05 12 10 03 00 	mov    rax,QWORD PTR [rip+0x31012]        # 47058 <_DYNAMIC+0x1c0>
   16046:	be 18 00 00 00       	mov    esi,0x18
   1604b:	ff d0                	call   rax
   1604d:	48 8b 84 24 d8 00 00 	mov    rax,QWORD PTR [rsp+0xd8]
   16054:	00 
   16055:	48 89 84 24 90 01 00 	mov    QWORD PTR [rsp+0x190],rax
   1605c:	00 
   1605d:	48 8b 84 24 90 01 00 	mov    rax,QWORD PTR [rsp+0x190]
   16064:	00 
   16065:	48 89 84 24 d0 00 00 	mov    QWORD PTR [rsp+0xd0],rax
   1606c:	00 
   1606d:	48 83 f8 18          	cmp    rax,0x18
   16071:	72 12                	jb     16085 <_ZN6x86_6410structures6paging10page_table1_16InternalBitFlags3all17hdcb0cfe37fa2fefbE+0x7c5>
   16073:	eb 6b                	jmp    160e0 <_ZN6x86_6410structures6paging10page_table1_16InternalBitFlags3all17hdcb0cfe37fa2fefbE+0x820>
   16075:	48 8d 3d 84 8a 02 00 	lea    rdi,[rip+0x28a84]        # 3eb00 <memmove+0x13d0>
   1607c:	48 8b 05 fd 0f 03 00 	mov    rax,QWORD PTR [rip+0x30ffd]        # 47080 <_DYNAMIC+0x1e8>
   16083:	ff d0                	call   rax
   16085:	48 8b 84 24 d0 00 00 	mov    rax,QWORD PTR [rsp+0xd0]
   1608c:	00 
   1608d:	48 8d 0c 40          	lea    rcx,[rax+rax*2]
   16091:	48 8d 05 28 88 02 00 	lea    rax,[rip+0x28828]        # 3e8c0 <memmove+0x1190>
   16098:	48 8d 3c c8          	lea    rdi,[rax+rcx*8]
   1609c:	48 8b 05 d5 0f 03 00 	mov    rax,QWORD PTR [rip+0x30fd5]        # 47078 <_DYNAMIC+0x1e0>
   160a3:	ff d0                	call   rax
   160a5:	48 89 c7             	mov    rdi,rax
   160a8:	e8 73 09 00 00       	call   16a20 <_ZN6x86_6410structures6paging10page_table1_72_$LT$impl$u20$x86_64..structures..paging..page_table..PageTableFlags$GT$4bits17h1535141e69d046feE>
   160ad:	48 89 84 24 f0 01 00 	mov    QWORD PTR [rsp+0x1f0],rax
   160b4:	00 
   160b5:	48 0b 84 24 88 01 00 	or     rax,QWORD PTR [rsp+0x188]
   160bc:	00 
   160bd:	48 89 84 24 88 01 00 	mov    QWORD PTR [rsp+0x188],rax
   160c4:	00 
   160c5:	48 8b 84 24 90 01 00 	mov    rax,QWORD PTR [rsp+0x190]
   160cc:	00 
   160cd:	48 83 c0 01          	add    rax,0x1
   160d1:	48 89 84 24 c8 00 00 	mov    QWORD PTR [rsp+0xc8],rax
   160d8:	00 
   160d9:	0f 92 c0             	setb   al
   160dc:	72 47                	jb     16125 <_ZN6x86_6410structures6paging10page_table1_16InternalBitFlags3all17hdcb0cfe37fa2fefbE+0x865>
   160de:	eb 1d                	jmp    160fd <_ZN6x86_6410structures6paging10page_table1_16InternalBitFlags3all17hdcb0cfe37fa2fefbE+0x83d>
   160e0:	48 8b bc 24 d0 00 00 	mov    rdi,QWORD PTR [rsp+0xd0]
   160e7:	00 
   160e8:	48 8d 15 11 8a 02 00 	lea    rdx,[rip+0x28a11]        # 3eb00 <memmove+0x13d0>
   160ef:	48 8b 05 62 0f 03 00 	mov    rax,QWORD PTR [rip+0x30f62]        # 47058 <_DYNAMIC+0x1c0>
   160f6:	be 18 00 00 00       	mov    esi,0x18
   160fb:	ff d0                	call   rax
   160fd:	48 8b 84 24 c8 00 00 	mov    rax,QWORD PTR [rsp+0xc8]
   16104:	00 
   16105:	48 89 84 24 90 01 00 	mov    QWORD PTR [rsp+0x190],rax
   1610c:	00 
   1610d:	48 8b 84 24 90 01 00 	mov    rax,QWORD PTR [rsp+0x190]
   16114:	00 
   16115:	48 89 84 24 c0 00 00 	mov    QWORD PTR [rsp+0xc0],rax
   1611c:	00 
   1611d:	48 83 f8 18          	cmp    rax,0x18
   16121:	72 12                	jb     16135 <_ZN6x86_6410structures6paging10page_table1_16InternalBitFlags3all17hdcb0cfe37fa2fefbE+0x875>
   16123:	eb 6b                	jmp    16190 <_ZN6x86_6410structures6paging10page_table1_16InternalBitFlags3all17hdcb0cfe37fa2fefbE+0x8d0>
   16125:	48 8d 3d d4 89 02 00 	lea    rdi,[rip+0x289d4]        # 3eb00 <memmove+0x13d0>
   1612c:	48 8b 05 4d 0f 03 00 	mov    rax,QWORD PTR [rip+0x30f4d]        # 47080 <_DYNAMIC+0x1e8>
   16133:	ff d0                	call   rax
   16135:	48 8b 84 24 c0 00 00 	mov    rax,QWORD PTR [rsp+0xc0]
   1613c:	00 
   1613d:	48 8d 0c 40          	lea    rcx,[rax+rax*2]
   16141:	48 8d 05 78 87 02 00 	lea    rax,[rip+0x28778]        # 3e8c0 <memmove+0x1190>
   16148:	48 8d 3c c8          	lea    rdi,[rax+rcx*8]
   1614c:	48 8b 05 25 0f 03 00 	mov    rax,QWORD PTR [rip+0x30f25]        # 47078 <_DYNAMIC+0x1e0>
   16153:	ff d0                	call   rax
   16155:	48 89 c7             	mov    rdi,rax
   16158:	e8 c3 08 00 00       	call   16a20 <_ZN6x86_6410structures6paging10page_table1_72_$LT$impl$u20$x86_64..structures..paging..page_table..PageTableFlags$GT$4bits17h1535141e69d046feE>
   1615d:	48 89 84 24 f8 01 00 	mov    QWORD PTR [rsp+0x1f8],rax
   16164:	00 
   16165:	48 0b 84 24 88 01 00 	or     rax,QWORD PTR [rsp+0x188]
   1616c:	00 
   1616d:	48 89 84 24 88 01 00 	mov    QWORD PTR [rsp+0x188],rax
   16174:	00 
   16175:	48 8b 84 24 90 01 00 	mov    rax,QWORD PTR [rsp+0x190]
   1617c:	00 
   1617d:	48 83 c0 01          	add    rax,0x1
   16181:	48 89 84 24 b8 00 00 	mov    QWORD PTR [rsp+0xb8],rax
   16188:	00 
   16189:	0f 92 c0             	setb   al
   1618c:	72 47                	jb     161d5 <_ZN6x86_6410structures6paging10page_table1_16InternalBitFlags3all17hdcb0cfe37fa2fefbE+0x915>
   1618e:	eb 1d                	jmp    161ad <_ZN6x86_6410structures6paging10page_table1_16InternalBitFlags3all17hdcb0cfe37fa2fefbE+0x8ed>
   16190:	48 8b bc 24 c0 00 00 	mov    rdi,QWORD PTR [rsp+0xc0]
   16197:	00 
   16198:	48 8d 15 61 89 02 00 	lea    rdx,[rip+0x28961]        # 3eb00 <memmove+0x13d0>
   1619f:	48 8b 05 b2 0e 03 00 	mov    rax,QWORD PTR [rip+0x30eb2]        # 47058 <_DYNAMIC+0x1c0>
   161a6:	be 18 00 00 00       	mov    esi,0x18
   161ab:	ff d0                	call   rax
   161ad:	48 8b 84 24 b8 00 00 	mov    rax,QWORD PTR [rsp+0xb8]
   161b4:	00 
   161b5:	48 89 84 24 90 01 00 	mov    QWORD PTR [rsp+0x190],rax
   161bc:	00 
   161bd:	48 8b 84 24 90 01 00 	mov    rax,QWORD PTR [rsp+0x190]
   161c4:	00 
   161c5:	48 89 84 24 b0 00 00 	mov    QWORD PTR [rsp+0xb0],rax
   161cc:	00 
   161cd:	48 83 f8 18          	cmp    rax,0x18
   161d1:	72 12                	jb     161e5 <_ZN6x86_6410structures6paging10page_table1_16InternalBitFlags3all17hdcb0cfe37fa2fefbE+0x925>
   161d3:	eb 6b                	jmp    16240 <_ZN6x86_6410structures6paging10page_table1_16InternalBitFlags3all17hdcb0cfe37fa2fefbE+0x980>
   161d5:	48 8d 3d 24 89 02 00 	lea    rdi,[rip+0x28924]        # 3eb00 <memmove+0x13d0>
   161dc:	48 8b 05 9d 0e 03 00 	mov    rax,QWORD PTR [rip+0x30e9d]        # 47080 <_DYNAMIC+0x1e8>
   161e3:	ff d0                	call   rax
   161e5:	48 8b 84 24 b0 00 00 	mov    rax,QWORD PTR [rsp+0xb0]
   161ec:	00 
   161ed:	48 8d 0c 40          	lea    rcx,[rax+rax*2]
   161f1:	48 8d 05 c8 86 02 00 	lea    rax,[rip+0x286c8]        # 3e8c0 <memmove+0x1190>
   161f8:	48 8d 3c c8          	lea    rdi,[rax+rcx*8]
   161fc:	48 8b 05 75 0e 03 00 	mov    rax,QWORD PTR [rip+0x30e75]        # 47078 <_DYNAMIC+0x1e0>
   16203:	ff d0                	call   rax
   16205:	48 89 c7             	mov    rdi,rax
   16208:	e8 13 08 00 00       	call   16a20 <_ZN6x86_6410structures6paging10page_table1_72_$LT$impl$u20$x86_64..structures..paging..page_table..PageTableFlags$GT$4bits17h1535141e69d046feE>
   1620d:	48 89 84 24 00 02 00 	mov    QWORD PTR [rsp+0x200],rax
   16214:	00 
   16215:	48 0b 84 24 88 01 00 	or     rax,QWORD PTR [rsp+0x188]
   1621c:	00 
   1621d:	48 89 84 24 88 01 00 	mov    QWORD PTR [rsp+0x188],rax
   16224:	00 
   16225:	48 8b 84 24 90 01 00 	mov    rax,QWORD PTR [rsp+0x190]
   1622c:	00 
   1622d:	48 83 c0 01          	add    rax,0x1
   16231:	48 89 84 24 a8 00 00 	mov    QWORD PTR [rsp+0xa8],rax
   16238:	00 
   16239:	0f 92 c0             	setb   al
   1623c:	72 47                	jb     16285 <_ZN6x86_6410structures6paging10page_table1_16InternalBitFlags3all17hdcb0cfe37fa2fefbE+0x9c5>
   1623e:	eb 1d                	jmp    1625d <_ZN6x86_6410structures6paging10page_table1_16InternalBitFlags3all17hdcb0cfe37fa2fefbE+0x99d>
   16240:	48 8b bc 24 b0 00 00 	mov    rdi,QWORD PTR [rsp+0xb0]
   16247:	00 
   16248:	48 8d 15 b1 88 02 00 	lea    rdx,[rip+0x288b1]        # 3eb00 <memmove+0x13d0>
   1624f:	48 8b 05 02 0e 03 00 	mov    rax,QWORD PTR [rip+0x30e02]        # 47058 <_DYNAMIC+0x1c0>
   16256:	be 18 00 00 00       	mov    esi,0x18
   1625b:	ff d0                	call   rax
   1625d:	48 8b 84 24 a8 00 00 	mov    rax,QWORD PTR [rsp+0xa8]
   16264:	00 
   16265:	48 89 84 24 90 01 00 	mov    QWORD PTR [rsp+0x190],rax
   1626c:	00 
   1626d:	48 8b 84 24 90 01 00 	mov    rax,QWORD PTR [rsp+0x190]
   16274:	00 
   16275:	48 89 84 24 a0 00 00 	mov    QWORD PTR [rsp+0xa0],rax
   1627c:	00 
   1627d:	48 83 f8 18          	cmp    rax,0x18
   16281:	72 12                	jb     16295 <_ZN6x86_6410structures6paging10page_table1_16InternalBitFlags3all17hdcb0cfe37fa2fefbE+0x9d5>
   16283:	eb 6b                	jmp    162f0 <_ZN6x86_6410structures6paging10page_table1_16InternalBitFlags3all17hdcb0cfe37fa2fefbE+0xa30>
   16285:	48 8d 3d 74 88 02 00 	lea    rdi,[rip+0x28874]        # 3eb00 <memmove+0x13d0>
   1628c:	48 8b 05 ed 0d 03 00 	mov    rax,QWORD PTR [rip+0x30ded]        # 47080 <_DYNAMIC+0x1e8>
   16293:	ff d0                	call   rax
   16295:	48 8b 84 24 a0 00 00 	mov    rax,QWORD PTR [rsp+0xa0]
   1629c:	00 
   1629d:	48 8d 0c 40          	lea    rcx,[rax+rax*2]
   162a1:	48 8d 05 18 86 02 00 	lea    rax,[rip+0x28618]        # 3e8c0 <memmove+0x1190>
   162a8:	48 8d 3c c8          	lea    rdi,[rax+rcx*8]
   162ac:	48 8b 05 c5 0d 03 00 	mov    rax,QWORD PTR [rip+0x30dc5]        # 47078 <_DYNAMIC+0x1e0>
   162b3:	ff d0                	call   rax
   162b5:	48 89 c7             	mov    rdi,rax
   162b8:	e8 63 07 00 00       	call   16a20 <_ZN6x86_6410structures6paging10page_table1_72_$LT$impl$u20$x86_64..structures..paging..page_table..PageTableFlags$GT$4bits17h1535141e69d046feE>
   162bd:	48 89 84 24 08 02 00 	mov    QWORD PTR [rsp+0x208],rax
   162c4:	00 
   162c5:	48 0b 84 24 88 01 00 	or     rax,QWORD PTR [rsp+0x188]
   162cc:	00 
   162cd:	48 89 84 24 88 01 00 	mov    QWORD PTR [rsp+0x188],rax
   162d4:	00 
   162d5:	48 8b 84 24 90 01 00 	mov    rax,QWORD PTR [rsp+0x190]
   162dc:	00 
   162dd:	48 83 c0 01          	add    rax,0x1
   162e1:	48 89 84 24 98 00 00 	mov    QWORD PTR [rsp+0x98],rax
   162e8:	00 
   162e9:	0f 92 c0             	setb   al
   162ec:	72 47                	jb     16335 <_ZN6x86_6410structures6paging10page_table1_16InternalBitFlags3all17hdcb0cfe37fa2fefbE+0xa75>
   162ee:	eb 1d                	jmp    1630d <_ZN6x86_6410structures6paging10page_table1_16InternalBitFlags3all17hdcb0cfe37fa2fefbE+0xa4d>
   162f0:	48 8b bc 24 a0 00 00 	mov    rdi,QWORD PTR [rsp+0xa0]
   162f7:	00 
   162f8:	48 8d 15 01 88 02 00 	lea    rdx,[rip+0x28801]        # 3eb00 <memmove+0x13d0>
   162ff:	48 8b 05 52 0d 03 00 	mov    rax,QWORD PTR [rip+0x30d52]        # 47058 <_DYNAMIC+0x1c0>
   16306:	be 18 00 00 00       	mov    esi,0x18
   1630b:	ff d0                	call   rax
   1630d:	48 8b 84 24 98 00 00 	mov    rax,QWORD PTR [rsp+0x98]
   16314:	00 
   16315:	48 89 84 24 90 01 00 	mov    QWORD PTR [rsp+0x190],rax
   1631c:	00 
   1631d:	48 8b 84 24 90 01 00 	mov    rax,QWORD PTR [rsp+0x190]
   16324:	00 
   16325:	48 89 84 24 90 00 00 	mov    QWORD PTR [rsp+0x90],rax
   1632c:	00 
   1632d:	48 83 f8 18          	cmp    rax,0x18
   16331:	72 12                	jb     16345 <_ZN6x86_6410structures6paging10page_table1_16InternalBitFlags3all17hdcb0cfe37fa2fefbE+0xa85>
   16333:	eb 6b                	jmp    163a0 <_ZN6x86_6410structures6paging10page_table1_16InternalBitFlags3all17hdcb0cfe37fa2fefbE+0xae0>
   16335:	48 8d 3d c4 87 02 00 	lea    rdi,[rip+0x287c4]        # 3eb00 <memmove+0x13d0>
   1633c:	48 8b 05 3d 0d 03 00 	mov    rax,QWORD PTR [rip+0x30d3d]        # 47080 <_DYNAMIC+0x1e8>
   16343:	ff d0                	call   rax
   16345:	48 8b 84 24 90 00 00 	mov    rax,QWORD PTR [rsp+0x90]
   1634c:	00 
   1634d:	48 8d 0c 40          	lea    rcx,[rax+rax*2]
   16351:	48 8d 05 68 85 02 00 	lea    rax,[rip+0x28568]        # 3e8c0 <memmove+0x1190>
   16358:	48 8d 3c c8          	lea    rdi,[rax+rcx*8]
   1635c:	48 8b 05 15 0d 03 00 	mov    rax,QWORD PTR [rip+0x30d15]        # 47078 <_DYNAMIC+0x1e0>
   16363:	ff d0                	call   rax
   16365:	48 89 c7             	mov    rdi,rax
   16368:	e8 b3 06 00 00       	call   16a20 <_ZN6x86_6410structures6paging10page_table1_72_$LT$impl$u20$x86_64..structures..paging..page_table..PageTableFlags$GT$4bits17h1535141e69d046feE>
   1636d:	48 89 84 24 10 02 00 	mov    QWORD PTR [rsp+0x210],rax
   16374:	00 
   16375:	48 0b 84 24 88 01 00 	or     rax,QWORD PTR [rsp+0x188]
   1637c:	00 
   1637d:	48 89 84 24 88 01 00 	mov    QWORD PTR [rsp+0x188],rax
   16384:	00 
   16385:	48 8b 84 24 90 01 00 	mov    rax,QWORD PTR [rsp+0x190]
   1638c:	00 
   1638d:	48 83 c0 01          	add    rax,0x1
   16391:	48 89 84 24 88 00 00 	mov    QWORD PTR [rsp+0x88],rax
   16398:	00 
   16399:	0f 92 c0             	setb   al
   1639c:	72 47                	jb     163e5 <_ZN6x86_6410structures6paging10page_table1_16InternalBitFlags3all17hdcb0cfe37fa2fefbE+0xb25>
   1639e:	eb 1d                	jmp    163bd <_ZN6x86_6410structures6paging10page_table1_16InternalBitFlags3all17hdcb0cfe37fa2fefbE+0xafd>
   163a0:	48 8b bc 24 90 00 00 	mov    rdi,QWORD PTR [rsp+0x90]
   163a7:	00 
   163a8:	48 8d 15 51 87 02 00 	lea    rdx,[rip+0x28751]        # 3eb00 <memmove+0x13d0>
   163af:	48 8b 05 a2 0c 03 00 	mov    rax,QWORD PTR [rip+0x30ca2]        # 47058 <_DYNAMIC+0x1c0>
   163b6:	be 18 00 00 00       	mov    esi,0x18
   163bb:	ff d0                	call   rax
   163bd:	48 8b 84 24 88 00 00 	mov    rax,QWORD PTR [rsp+0x88]
   163c4:	00 
   163c5:	48 89 84 24 90 01 00 	mov    QWORD PTR [rsp+0x190],rax
   163cc:	00 
   163cd:	48 8b 84 24 90 01 00 	mov    rax,QWORD PTR [rsp+0x190]
   163d4:	00 
   163d5:	48 89 84 24 80 00 00 	mov    QWORD PTR [rsp+0x80],rax
   163dc:	00 
   163dd:	48 83 f8 18          	cmp    rax,0x18
   163e1:	72 12                	jb     163f5 <_ZN6x86_6410structures6paging10page_table1_16InternalBitFlags3all17hdcb0cfe37fa2fefbE+0xb35>
   163e3:	eb 68                	jmp    1644d <_ZN6x86_6410structures6paging10page_table1_16InternalBitFlags3all17hdcb0cfe37fa2fefbE+0xb8d>
   163e5:	48 8d 3d 14 87 02 00 	lea    rdi,[rip+0x28714]        # 3eb00 <memmove+0x13d0>
   163ec:	48 8b 05 8d 0c 03 00 	mov    rax,QWORD PTR [rip+0x30c8d]        # 47080 <_DYNAMIC+0x1e8>
   163f3:	ff d0                	call   rax
   163f5:	48 8b 84 24 80 00 00 	mov    rax,QWORD PTR [rsp+0x80]
   163fc:	00 
   163fd:	48 8d 0c 40          	lea    rcx,[rax+rax*2]
   16401:	48 8d 05 b8 84 02 00 	lea    rax,[rip+0x284b8]        # 3e8c0 <memmove+0x1190>
   16408:	48 8d 3c c8          	lea    rdi,[rax+rcx*8]
   1640c:	48 8b 05 65 0c 03 00 	mov    rax,QWORD PTR [rip+0x30c65]        # 47078 <_DYNAMIC+0x1e0>
   16413:	ff d0                	call   rax
   16415:	48 89 c7             	mov    rdi,rax
   16418:	e8 03 06 00 00       	call   16a20 <_ZN6x86_6410structures6paging10page_table1_72_$LT$impl$u20$x86_64..structures..paging..page_table..PageTableFlags$GT$4bits17h1535141e69d046feE>
   1641d:	48 89 84 24 18 02 00 	mov    QWORD PTR [rsp+0x218],rax
   16424:	00 
   16425:	48 0b 84 24 88 01 00 	or     rax,QWORD PTR [rsp+0x188]
   1642c:	00 
   1642d:	48 89 84 24 88 01 00 	mov    QWORD PTR [rsp+0x188],rax
   16434:	00 
   16435:	48 8b 84 24 90 01 00 	mov    rax,QWORD PTR [rsp+0x190]
   1643c:	00 
   1643d:	48 83 c0 01          	add    rax,0x1
   16441:	48 89 44 24 78       	mov    QWORD PTR [rsp+0x78],rax
   16446:	0f 92 c0             	setb   al
   16449:	72 41                	jb     1648c <_ZN6x86_6410structures6paging10page_table1_16InternalBitFlags3all17hdcb0cfe37fa2fefbE+0xbcc>
   1644b:	eb 1d                	jmp    1646a <_ZN6x86_6410structures6paging10page_table1_16InternalBitFlags3all17hdcb0cfe37fa2fefbE+0xbaa>
   1644d:	48 8b bc 24 80 00 00 	mov    rdi,QWORD PTR [rsp+0x80]
   16454:	00 
   16455:	48 8d 15 a4 86 02 00 	lea    rdx,[rip+0x286a4]        # 3eb00 <memmove+0x13d0>
   1645c:	48 8b 05 f5 0b 03 00 	mov    rax,QWORD PTR [rip+0x30bf5]        # 47058 <_DYNAMIC+0x1c0>
   16463:	be 18 00 00 00       	mov    esi,0x18
   16468:	ff d0                	call   rax
   1646a:	48 8b 44 24 78       	mov    rax,QWORD PTR [rsp+0x78]
   1646f:	48 89 84 24 90 01 00 	mov    QWORD PTR [rsp+0x190],rax
   16476:	00 
   16477:	48 8b 84 24 90 01 00 	mov    rax,QWORD PTR [rsp+0x190]
   1647e:	00 
   1647f:	48 89 44 24 70       	mov    QWORD PTR [rsp+0x70],rax
   16484:	48 83 f8 18          	cmp    rax,0x18
   16488:	72 12                	jb     1649c <_ZN6x86_6410structures6paging10page_table1_16InternalBitFlags3all17hdcb0cfe37fa2fefbE+0xbdc>
   1648a:	eb 65                	jmp    164f1 <_ZN6x86_6410structures6paging10page_table1_16InternalBitFlags3all17hdcb0cfe37fa2fefbE+0xc31>
   1648c:	48 8d 3d 6d 86 02 00 	lea    rdi,[rip+0x2866d]        # 3eb00 <memmove+0x13d0>
   16493:	48 8b 05 e6 0b 03 00 	mov    rax,QWORD PTR [rip+0x30be6]        # 47080 <_DYNAMIC+0x1e8>
   1649a:	ff d0                	call   rax
   1649c:	48 8b 44 24 70       	mov    rax,QWORD PTR [rsp+0x70]
   164a1:	48 8d 0c 40          	lea    rcx,[rax+rax*2]
   164a5:	48 8d 05 14 84 02 00 	lea    rax,[rip+0x28414]        # 3e8c0 <memmove+0x1190>
   164ac:	48 8d 3c c8          	lea    rdi,[rax+rcx*8]
   164b0:	48 8b 05 c1 0b 03 00 	mov    rax,QWORD PTR [rip+0x30bc1]        # 47078 <_DYNAMIC+0x1e0>
   164b7:	ff d0                	call   rax
   164b9:	48 89 c7             	mov    rdi,rax
   164bc:	e8 5f 05 00 00       	call   16a20 <_ZN6x86_6410structures6paging10page_table1_72_$LT$impl$u20$x86_64..structures..paging..page_table..PageTableFlags$GT$4bits17h1535141e69d046feE>
   164c1:	48 89 84 24 20 02 00 	mov    QWORD PTR [rsp+0x220],rax
   164c8:	00 
   164c9:	48 0b 84 24 88 01 00 	or     rax,QWORD PTR [rsp+0x188]
   164d0:	00 
   164d1:	48 89 84 24 88 01 00 	mov    QWORD PTR [rsp+0x188],rax
   164d8:	00 
   164d9:	48 8b 84 24 90 01 00 	mov    rax,QWORD PTR [rsp+0x190]
   164e0:	00 
   164e1:	48 83 c0 01          	add    rax,0x1
   164e5:	48 89 44 24 68       	mov    QWORD PTR [rsp+0x68],rax
   164ea:	0f 92 c0             	setb   al
   164ed:	72 3e                	jb     1652d <_ZN6x86_6410structures6paging10page_table1_16InternalBitFlags3all17hdcb0cfe37fa2fefbE+0xc6d>
   164ef:	eb 1a                	jmp    1650b <_ZN6x86_6410structures6paging10page_table1_16InternalBitFlags3all17hdcb0cfe37fa2fefbE+0xc4b>
   164f1:	48 8b 7c 24 70       	mov    rdi,QWORD PTR [rsp+0x70]
   164f6:	48 8d 15 03 86 02 00 	lea    rdx,[rip+0x28603]        # 3eb00 <memmove+0x13d0>
   164fd:	48 8b 05 54 0b 03 00 	mov    rax,QWORD PTR [rip+0x30b54]        # 47058 <_DYNAMIC+0x1c0>
   16504:	be 18 00 00 00       	mov    esi,0x18
   16509:	ff d0                	call   rax
   1650b:	48 8b 44 24 68       	mov    rax,QWORD PTR [rsp+0x68]
   16510:	48 89 84 24 90 01 00 	mov    QWORD PTR [rsp+0x190],rax
   16517:	00 
   16518:	48 8b 84 24 90 01 00 	mov    rax,QWORD PTR [rsp+0x190]
   1651f:	00 
   16520:	48 89 44 24 60       	mov    QWORD PTR [rsp+0x60],rax
   16525:	48 83 f8 18          	cmp    rax,0x18
   16529:	72 12                	jb     1653d <_ZN6x86_6410structures6paging10page_table1_16InternalBitFlags3all17hdcb0cfe37fa2fefbE+0xc7d>
   1652b:	eb 65                	jmp    16592 <_ZN6x86_6410structures6paging10page_table1_16InternalBitFlags3all17hdcb0cfe37fa2fefbE+0xcd2>
   1652d:	48 8d 3d cc 85 02 00 	lea    rdi,[rip+0x285cc]        # 3eb00 <memmove+0x13d0>
   16534:	48 8b 05 45 0b 03 00 	mov    rax,QWORD PTR [rip+0x30b45]        # 47080 <_DYNAMIC+0x1e8>
   1653b:	ff d0                	call   rax
   1653d:	48 8b 44 24 60       	mov    rax,QWORD PTR [rsp+0x60]
   16542:	48 8d 0c 40          	lea    rcx,[rax+rax*2]
   16546:	48 8d 05 73 83 02 00 	lea    rax,[rip+0x28373]        # 3e8c0 <memmove+0x1190>
   1654d:	48 8d 3c c8          	lea    rdi,[rax+rcx*8]
   16551:	48 8b 05 20 0b 03 00 	mov    rax,QWORD PTR [rip+0x30b20]        # 47078 <_DYNAMIC+0x1e0>
   16558:	ff d0                	call   rax
   1655a:	48 89 c7             	mov    rdi,rax
   1655d:	e8 be 04 00 00       	call   16a20 <_ZN6x86_6410structures6paging10page_table1_72_$LT$impl$u20$x86_64..structures..paging..page_table..PageTableFlags$GT$4bits17h1535141e69d046feE>
   16562:	48 89 84 24 28 02 00 	mov    QWORD PTR [rsp+0x228],rax
   16569:	00 
   1656a:	48 0b 84 24 88 01 00 	or     rax,QWORD PTR [rsp+0x188]
   16571:	00 
   16572:	48 89 84 24 88 01 00 	mov    QWORD PTR [rsp+0x188],rax
   16579:	00 
   1657a:	48 8b 84 24 90 01 00 	mov    rax,QWORD PTR [rsp+0x190]
   16581:	00 
   16582:	48 83 c0 01          	add    rax,0x1
   16586:	48 89 44 24 58       	mov    QWORD PTR [rsp+0x58],rax
   1658b:	0f 92 c0             	setb   al
   1658e:	72 3e                	jb     165ce <_ZN6x86_6410structures6paging10page_table1_16InternalBitFlags3all17hdcb0cfe37fa2fefbE+0xd0e>
   16590:	eb 1a                	jmp    165ac <_ZN6x86_6410structures6paging10page_table1_16InternalBitFlags3all17hdcb0cfe37fa2fefbE+0xcec>
   16592:	48 8b 7c 24 60       	mov    rdi,QWORD PTR [rsp+0x60]
   16597:	48 8d 15 62 85 02 00 	lea    rdx,[rip+0x28562]        # 3eb00 <memmove+0x13d0>
   1659e:	48 8b 05 b3 0a 03 00 	mov    rax,QWORD PTR [rip+0x30ab3]        # 47058 <_DYNAMIC+0x1c0>
   165a5:	be 18 00 00 00       	mov    esi,0x18
   165aa:	ff d0                	call   rax
   165ac:	48 8b 44 24 58       	mov    rax,QWORD PTR [rsp+0x58]
   165b1:	48 89 84 24 90 01 00 	mov    QWORD PTR [rsp+0x190],rax
   165b8:	00 
   165b9:	48 8b 84 24 90 01 00 	mov    rax,QWORD PTR [rsp+0x190]
   165c0:	00 
   165c1:	48 89 44 24 50       	mov    QWORD PTR [rsp+0x50],rax
   165c6:	48 83 f8 18          	cmp    rax,0x18
   165ca:	72 12                	jb     165de <_ZN6x86_6410structures6paging10page_table1_16InternalBitFlags3all17hdcb0cfe37fa2fefbE+0xd1e>
   165cc:	eb 65                	jmp    16633 <_ZN6x86_6410structures6paging10page_table1_16InternalBitFlags3all17hdcb0cfe37fa2fefbE+0xd73>
   165ce:	48 8d 3d 2b 85 02 00 	lea    rdi,[rip+0x2852b]        # 3eb00 <memmove+0x13d0>
   165d5:	48 8b 05 a4 0a 03 00 	mov    rax,QWORD PTR [rip+0x30aa4]        # 47080 <_DYNAMIC+0x1e8>
   165dc:	ff d0                	call   rax
   165de:	48 8b 44 24 50       	mov    rax,QWORD PTR [rsp+0x50]
   165e3:	48 8d 0c 40          	lea    rcx,[rax+rax*2]
   165e7:	48 8d 05 d2 82 02 00 	lea    rax,[rip+0x282d2]        # 3e8c0 <memmove+0x1190>
   165ee:	48 8d 3c c8          	lea    rdi,[rax+rcx*8]
   165f2:	48 8b 05 7f 0a 03 00 	mov    rax,QWORD PTR [rip+0x30a7f]        # 47078 <_DYNAMIC+0x1e0>
   165f9:	ff d0                	call   rax
   165fb:	48 89 c7             	mov    rdi,rax
   165fe:	e8 1d 04 00 00       	call   16a20 <_ZN6x86_6410structures6paging10page_table1_72_$LT$impl$u20$x86_64..structures..paging..page_table..PageTableFlags$GT$4bits17h1535141e69d046feE>
   16603:	48 89 84 24 30 02 00 	mov    QWORD PTR [rsp+0x230],rax
   1660a:	00 
   1660b:	48 0b 84 24 88 01 00 	or     rax,QWORD PTR [rsp+0x188]
   16612:	00 
   16613:	48 89 84 24 88 01 00 	mov    QWORD PTR [rsp+0x188],rax
   1661a:	00 
   1661b:	48 8b 84 24 90 01 00 	mov    rax,QWORD PTR [rsp+0x190]
   16622:	00 
   16623:	48 83 c0 01          	add    rax,0x1
   16627:	48 89 44 24 48       	mov    QWORD PTR [rsp+0x48],rax
   1662c:	0f 92 c0             	setb   al
   1662f:	72 3e                	jb     1666f <_ZN6x86_6410structures6paging10page_table1_16InternalBitFlags3all17hdcb0cfe37fa2fefbE+0xdaf>
   16631:	eb 1a                	jmp    1664d <_ZN6x86_6410structures6paging10page_table1_16InternalBitFlags3all17hdcb0cfe37fa2fefbE+0xd8d>
   16633:	48 8b 7c 24 50       	mov    rdi,QWORD PTR [rsp+0x50]
   16638:	48 8d 15 c1 84 02 00 	lea    rdx,[rip+0x284c1]        # 3eb00 <memmove+0x13d0>
   1663f:	48 8b 05 12 0a 03 00 	mov    rax,QWORD PTR [rip+0x30a12]        # 47058 <_DYNAMIC+0x1c0>
   16646:	be 18 00 00 00       	mov    esi,0x18
   1664b:	ff d0                	call   rax
   1664d:	48 8b 44 24 48       	mov    rax,QWORD PTR [rsp+0x48]
   16652:	48 89 84 24 90 01 00 	mov    QWORD PTR [rsp+0x190],rax
   16659:	00 
   1665a:	48 8b 84 24 90 01 00 	mov    rax,QWORD PTR [rsp+0x190]
   16661:	00 
   16662:	48 89 44 24 40       	mov    QWORD PTR [rsp+0x40],rax
   16667:	48 83 f8 18          	cmp    rax,0x18
   1666b:	72 12                	jb     1667f <_ZN6x86_6410structures6paging10page_table1_16InternalBitFlags3all17hdcb0cfe37fa2fefbE+0xdbf>
   1666d:	eb 65                	jmp    166d4 <_ZN6x86_6410structures6paging10page_table1_16InternalBitFlags3all17hdcb0cfe37fa2fefbE+0xe14>
   1666f:	48 8d 3d 8a 84 02 00 	lea    rdi,[rip+0x2848a]        # 3eb00 <memmove+0x13d0>
   16676:	48 8b 05 03 0a 03 00 	mov    rax,QWORD PTR [rip+0x30a03]        # 47080 <_DYNAMIC+0x1e8>
   1667d:	ff d0                	call   rax
   1667f:	48 8b 44 24 40       	mov    rax,QWORD PTR [rsp+0x40]
   16684:	48 8d 0c 40          	lea    rcx,[rax+rax*2]
   16688:	48 8d 05 31 82 02 00 	lea    rax,[rip+0x28231]        # 3e8c0 <memmove+0x1190>
   1668f:	48 8d 3c c8          	lea    rdi,[rax+rcx*8]
   16693:	48 8b 05 de 09 03 00 	mov    rax,QWORD PTR [rip+0x309de]        # 47078 <_DYNAMIC+0x1e0>
   1669a:	ff d0                	call   rax
   1669c:	48 89 c7             	mov    rdi,rax
   1669f:	e8 7c 03 00 00       	call   16a20 <_ZN6x86_6410structures6paging10page_table1_72_$LT$impl$u20$x86_64..structures..paging..page_table..PageTableFlags$GT$4bits17h1535141e69d046feE>
   166a4:	48 89 84 24 38 02 00 	mov    QWORD PTR [rsp+0x238],rax
   166ab:	00 
   166ac:	48 0b 84 24 88 01 00 	or     rax,QWORD PTR [rsp+0x188]
   166b3:	00 
   166b4:	48 89 84 24 88 01 00 	mov    QWORD PTR [rsp+0x188],rax
   166bb:	00 
   166bc:	48 8b 84 24 90 01 00 	mov    rax,QWORD PTR [rsp+0x190]
   166c3:	00 
   166c4:	48 83 c0 01          	add    rax,0x1
   166c8:	48 89 44 24 38       	mov    QWORD PTR [rsp+0x38],rax
   166cd:	0f 92 c0             	setb   al
   166d0:	72 3e                	jb     16710 <_ZN6x86_6410structures6paging10page_table1_16InternalBitFlags3all17hdcb0cfe37fa2fefbE+0xe50>
   166d2:	eb 1a                	jmp    166ee <_ZN6x86_6410structures6paging10page_table1_16InternalBitFlags3all17hdcb0cfe37fa2fefbE+0xe2e>
   166d4:	48 8b 7c 24 40       	mov    rdi,QWORD PTR [rsp+0x40]
   166d9:	48 8d 15 20 84 02 00 	lea    rdx,[rip+0x28420]        # 3eb00 <memmove+0x13d0>
   166e0:	48 8b 05 71 09 03 00 	mov    rax,QWORD PTR [rip+0x30971]        # 47058 <_DYNAMIC+0x1c0>
   166e7:	be 18 00 00 00       	mov    esi,0x18
   166ec:	ff d0                	call   rax
   166ee:	48 8b 44 24 38       	mov    rax,QWORD PTR [rsp+0x38]
   166f3:	48 89 84 24 90 01 00 	mov    QWORD PTR [rsp+0x190],rax
   166fa:	00 
   166fb:	48 8b 84 24 90 01 00 	mov    rax,QWORD PTR [rsp+0x190]
   16702:	00 
   16703:	48 89 44 24 30       	mov    QWORD PTR [rsp+0x30],rax
   16708:	48 83 f8 18          	cmp    rax,0x18
   1670c:	72 12                	jb     16720 <_ZN6x86_6410structures6paging10page_table1_16InternalBitFlags3all17hdcb0cfe37fa2fefbE+0xe60>
   1670e:	eb 65                	jmp    16775 <_ZN6x86_6410structures6paging10page_table1_16InternalBitFlags3all17hdcb0cfe37fa2fefbE+0xeb5>
   16710:	48 8d 3d e9 83 02 00 	lea    rdi,[rip+0x283e9]        # 3eb00 <memmove+0x13d0>
   16717:	48 8b 05 62 09 03 00 	mov    rax,QWORD PTR [rip+0x30962]        # 47080 <_DYNAMIC+0x1e8>
   1671e:	ff d0                	call   rax
   16720:	48 8b 44 24 30       	mov    rax,QWORD PTR [rsp+0x30]
   16725:	48 8d 0c 40          	lea    rcx,[rax+rax*2]
   16729:	48 8d 05 90 81 02 00 	lea    rax,[rip+0x28190]        # 3e8c0 <memmove+0x1190>
   16730:	48 8d 3c c8          	lea    rdi,[rax+rcx*8]
   16734:	48 8b 05 3d 09 03 00 	mov    rax,QWORD PTR [rip+0x3093d]        # 47078 <_DYNAMIC+0x1e0>
   1673b:	ff d0                	call   rax
   1673d:	48 89 c7             	mov    rdi,rax
   16740:	e8 db 02 00 00       	call   16a20 <_ZN6x86_6410structures6paging10page_table1_72_$LT$impl$u20$x86_64..structures..paging..page_table..PageTableFlags$GT$4bits17h1535141e69d046feE>
   16745:	48 89 84 24 40 02 00 	mov    QWORD PTR [rsp+0x240],rax
   1674c:	00 
   1674d:	48 0b 84 24 88 01 00 	or     rax,QWORD PTR [rsp+0x188]
   16754:	00 
   16755:	48 89 84 24 88 01 00 	mov    QWORD PTR [rsp+0x188],rax
   1675c:	00 
   1675d:	48 8b 84 24 90 01 00 	mov    rax,QWORD PTR [rsp+0x190]
   16764:	00 
   16765:	48 83 c0 01          	add    rax,0x1
   16769:	48 89 44 24 28       	mov    QWORD PTR [rsp+0x28],rax
   1676e:	0f 92 c0             	setb   al
   16771:	72 3e                	jb     167b1 <_ZN6x86_6410structures6paging10page_table1_16InternalBitFlags3all17hdcb0cfe37fa2fefbE+0xef1>
   16773:	eb 1a                	jmp    1678f <_ZN6x86_6410structures6paging10page_table1_16InternalBitFlags3all17hdcb0cfe37fa2fefbE+0xecf>
   16775:	48 8b 7c 24 30       	mov    rdi,QWORD PTR [rsp+0x30]
   1677a:	48 8d 15 7f 83 02 00 	lea    rdx,[rip+0x2837f]        # 3eb00 <memmove+0x13d0>
   16781:	48 8b 05 d0 08 03 00 	mov    rax,QWORD PTR [rip+0x308d0]        # 47058 <_DYNAMIC+0x1c0>
   16788:	be 18 00 00 00       	mov    esi,0x18
   1678d:	ff d0                	call   rax
   1678f:	48 8b 44 24 28       	mov    rax,QWORD PTR [rsp+0x28]
   16794:	48 89 84 24 90 01 00 	mov    QWORD PTR [rsp+0x190],rax
   1679b:	00 
   1679c:	48 8b 84 24 90 01 00 	mov    rax,QWORD PTR [rsp+0x190]
   167a3:	00 
   167a4:	48 89 44 24 20       	mov    QWORD PTR [rsp+0x20],rax
   167a9:	48 83 f8 18          	cmp    rax,0x18
   167ad:	72 12                	jb     167c1 <_ZN6x86_6410structures6paging10page_table1_16InternalBitFlags3all17hdcb0cfe37fa2fefbE+0xf01>
   167af:	eb 65                	jmp    16816 <_ZN6x86_6410structures6paging10page_table1_16InternalBitFlags3all17hdcb0cfe37fa2fefbE+0xf56>
   167b1:	48 8d 3d 48 83 02 00 	lea    rdi,[rip+0x28348]        # 3eb00 <memmove+0x13d0>
   167b8:	48 8b 05 c1 08 03 00 	mov    rax,QWORD PTR [rip+0x308c1]        # 47080 <_DYNAMIC+0x1e8>
   167bf:	ff d0                	call   rax
   167c1:	48 8b 44 24 20       	mov    rax,QWORD PTR [rsp+0x20]
   167c6:	48 8d 0c 40          	lea    rcx,[rax+rax*2]
   167ca:	48 8d 05 ef 80 02 00 	lea    rax,[rip+0x280ef]        # 3e8c0 <memmove+0x1190>
   167d1:	48 8d 3c c8          	lea    rdi,[rax+rcx*8]
   167d5:	48 8b 05 9c 08 03 00 	mov    rax,QWORD PTR [rip+0x3089c]        # 47078 <_DYNAMIC+0x1e0>
   167dc:	ff d0                	call   rax
   167de:	48 89 c7             	mov    rdi,rax
   167e1:	e8 3a 02 00 00       	call   16a20 <_ZN6x86_6410structures6paging10page_table1_72_$LT$impl$u20$x86_64..structures..paging..page_table..PageTableFlags$GT$4bits17h1535141e69d046feE>
   167e6:	48 89 84 24 48 02 00 	mov    QWORD PTR [rsp+0x248],rax
   167ed:	00 
   167ee:	48 0b 84 24 88 01 00 	or     rax,QWORD PTR [rsp+0x188]
   167f5:	00 
   167f6:	48 89 84 24 88 01 00 	mov    QWORD PTR [rsp+0x188],rax
   167fd:	00 
   167fe:	48 8b 84 24 90 01 00 	mov    rax,QWORD PTR [rsp+0x190]
   16805:	00 
   16806:	48 83 c0 01          	add    rax,0x1
   1680a:	48 89 44 24 18       	mov    QWORD PTR [rsp+0x18],rax
   1680f:	0f 92 c0             	setb   al
   16812:	72 3e                	jb     16852 <_ZN6x86_6410structures6paging10page_table1_16InternalBitFlags3all17hdcb0cfe37fa2fefbE+0xf92>
   16814:	eb 1a                	jmp    16830 <_ZN6x86_6410structures6paging10page_table1_16InternalBitFlags3all17hdcb0cfe37fa2fefbE+0xf70>
   16816:	48 8b 7c 24 20       	mov    rdi,QWORD PTR [rsp+0x20]
   1681b:	48 8d 15 de 82 02 00 	lea    rdx,[rip+0x282de]        # 3eb00 <memmove+0x13d0>
   16822:	48 8b 05 2f 08 03 00 	mov    rax,QWORD PTR [rip+0x3082f]        # 47058 <_DYNAMIC+0x1c0>
   16829:	be 18 00 00 00       	mov    esi,0x18
   1682e:	ff d0                	call   rax
   16830:	48 8b 44 24 18       	mov    rax,QWORD PTR [rsp+0x18]
   16835:	48 89 84 24 90 01 00 	mov    QWORD PTR [rsp+0x190],rax
   1683c:	00 
   1683d:	48 8b 84 24 90 01 00 	mov    rax,QWORD PTR [rsp+0x190]
   16844:	00 
   16845:	48 89 44 24 10       	mov    QWORD PTR [rsp+0x10],rax
   1684a:	48 83 f8 18          	cmp    rax,0x18
   1684e:	72 12                	jb     16862 <_ZN6x86_6410structures6paging10page_table1_16InternalBitFlags3all17hdcb0cfe37fa2fefbE+0xfa2>
   16850:	eb 65                	jmp    168b7 <_ZN6x86_6410structures6paging10page_table1_16InternalBitFlags3all17hdcb0cfe37fa2fefbE+0xff7>
   16852:	48 8d 3d a7 82 02 00 	lea    rdi,[rip+0x282a7]        # 3eb00 <memmove+0x13d0>
   16859:	48 8b 05 20 08 03 00 	mov    rax,QWORD PTR [rip+0x30820]        # 47080 <_DYNAMIC+0x1e8>
   16860:	ff d0                	call   rax
   16862:	48 8b 44 24 10       	mov    rax,QWORD PTR [rsp+0x10]
   16867:	48 8d 0c 40          	lea    rcx,[rax+rax*2]
   1686b:	48 8d 05 4e 80 02 00 	lea    rax,[rip+0x2804e]        # 3e8c0 <memmove+0x1190>
   16872:	48 8d 3c c8          	lea    rdi,[rax+rcx*8]
   16876:	48 8b 05 fb 07 03 00 	mov    rax,QWORD PTR [rip+0x307fb]        # 47078 <_DYNAMIC+0x1e0>
   1687d:	ff d0                	call   rax
   1687f:	48 89 c7             	mov    rdi,rax
   16882:	e8 99 01 00 00       	call   16a20 <_ZN6x86_6410structures6paging10page_table1_72_$LT$impl$u20$x86_64..structures..paging..page_table..PageTableFlags$GT$4bits17h1535141e69d046feE>
   16887:	48 89 84 24 50 02 00 	mov    QWORD PTR [rsp+0x250],rax
   1688e:	00 
   1688f:	48 0b 84 24 88 01 00 	or     rax,QWORD PTR [rsp+0x188]
   16896:	00 
   16897:	48 89 84 24 88 01 00 	mov    QWORD PTR [rsp+0x188],rax
   1689e:	00 
   1689f:	48 8b 84 24 90 01 00 	mov    rax,QWORD PTR [rsp+0x190]
   168a6:	00 
   168a7:	48 83 c0 01          	add    rax,0x1
   168ab:	48 89 44 24 08       	mov    QWORD PTR [rsp+0x8],rax
   168b0:	0f 92 c0             	setb   al
   168b3:	72 3e                	jb     168f3 <_ZN6x86_6410structures6paging10page_table1_16InternalBitFlags3all17hdcb0cfe37fa2fefbE+0x1033>
   168b5:	eb 1a                	jmp    168d1 <_ZN6x86_6410structures6paging10page_table1_16InternalBitFlags3all17hdcb0cfe37fa2fefbE+0x1011>
   168b7:	48 8b 7c 24 10       	mov    rdi,QWORD PTR [rsp+0x10]
   168bc:	48 8d 15 3d 82 02 00 	lea    rdx,[rip+0x2823d]        # 3eb00 <memmove+0x13d0>
   168c3:	48 8b 05 8e 07 03 00 	mov    rax,QWORD PTR [rip+0x3078e]        # 47058 <_DYNAMIC+0x1c0>
   168ca:	be 18 00 00 00       	mov    esi,0x18
   168cf:	ff d0                	call   rax
   168d1:	48 8b 44 24 08       	mov    rax,QWORD PTR [rsp+0x8]
   168d6:	48 89 84 24 90 01 00 	mov    QWORD PTR [rsp+0x190],rax
   168dd:	00 
   168de:	48 8b bc 24 88 01 00 	mov    rdi,QWORD PTR [rsp+0x188]
   168e5:	00 
   168e6:	e8 95 ef ff ff       	call   15880 <_ZN6x86_6410structures6paging10page_table1_16InternalBitFlags16from_bits_retain17hf2d6cc308f5108f1E>
   168eb:	48 81 c4 58 02 00 00 	add    rsp,0x258
   168f2:	c3                   	ret
   168f3:	48 8d 3d 06 82 02 00 	lea    rdi,[rip+0x28206]        # 3eb00 <memmove+0x13d0>
   168fa:	48 8b 05 7f 07 03 00 	mov    rax,QWORD PTR [rip+0x3077f]        # 47080 <_DYNAMIC+0x1e8>
   16901:	ff d0                	call   rax
   16903:	cc                   	int3
   16904:	cc                   	int3
   16905:	cc                   	int3
   16906:	cc                   	int3
   16907:	cc                   	int3
   16908:	cc                   	int3
   16909:	cc                   	int3
   1690a:	cc                   	int3
   1690b:	cc                   	int3
   1690c:	cc                   	int3
   1690d:	cc                   	int3
   1690e:	cc                   	int3
   1690f:	cc                   	int3

0000000000016910 <_ZN6x86_6410structures6paging10page_table1_16InternalBitFlags4bits17h473cdb8cdb1f9ed0E>:
   16910:	50                   	push   rax
   16911:	48 89 3c 24          	mov    QWORD PTR [rsp],rdi
   16915:	48 8b 07             	mov    rax,QWORD PTR [rdi]
   16918:	59                   	pop    rcx
   16919:	c3                   	ret
   1691a:	cc                   	int3
   1691b:	cc                   	int3
   1691c:	cc                   	int3
   1691d:	cc                   	int3
   1691e:	cc                   	int3
   1691f:	cc                   	int3

0000000000016920 <_ZN6x86_6410structures6paging10page_table1_16InternalBitFlags5union17h2c5bda1eb9a775cdE>:
   16920:	48 83 ec 28          	sub    rsp,0x28
   16924:	48 89 7c 24 18       	mov    QWORD PTR [rsp+0x18],rdi
   16929:	48 89 74 24 20       	mov    QWORD PTR [rsp+0x20],rsi
   1692e:	48 89 7c 24 08       	mov    QWORD PTR [rsp+0x8],rdi
   16933:	48 89 74 24 10       	mov    QWORD PTR [rsp+0x10],rsi
   16938:	48 8d 7c 24 08       	lea    rdi,[rsp+0x8]
   1693d:	e8 ce ff ff ff       	call   16910 <_ZN6x86_6410structures6paging10page_table1_16InternalBitFlags4bits17h473cdb8cdb1f9ed0E>
   16942:	48 89 04 24          	mov    QWORD PTR [rsp],rax
   16946:	48 8d 7c 24 10       	lea    rdi,[rsp+0x10]
   1694b:	e8 c0 ff ff ff       	call   16910 <_ZN6x86_6410structures6paging10page_table1_16InternalBitFlags4bits17h473cdb8cdb1f9ed0E>
   16950:	48 8b 3c 24          	mov    rdi,QWORD PTR [rsp]
   16954:	48 09 c7             	or     rdi,rax
   16957:	e8 24 ef ff ff       	call   15880 <_ZN6x86_6410structures6paging10page_table1_16InternalBitFlags16from_bits_retain17hf2d6cc308f5108f1E>
   1695c:	48 83 c4 28          	add    rsp,0x28
   16960:	c3                   	ret
   16961:	cc                   	int3
   16962:	cc                   	int3
   16963:	cc                   	int3
   16964:	cc                   	int3
   16965:	cc                   	int3
   16966:	cc                   	int3
   16967:	cc                   	int3
   16968:	cc                   	int3
   16969:	cc                   	int3
   1696a:	cc                   	int3
   1696b:	cc                   	int3
   1696c:	cc                   	int3
   1696d:	cc                   	int3
   1696e:	cc                   	int3
   1696f:	cc                   	int3

0000000000016970 <_ZN6x86_6410structures6paging10page_table1_16InternalBitFlags8contains17h5e96cfb4ee542313E>:
   16970:	48 83 ec 28          	sub    rsp,0x28
   16974:	48 89 7c 24 18       	mov    QWORD PTR [rsp+0x18],rdi
   16979:	48 89 74 24 20       	mov    QWORD PTR [rsp+0x20],rsi
   1697e:	48 89 74 24 10       	mov    QWORD PTR [rsp+0x10],rsi
   16983:	e8 88 ff ff ff       	call   16910 <_ZN6x86_6410structures6paging10page_table1_16InternalBitFlags4bits17h473cdb8cdb1f9ed0E>
   16988:	48 89 04 24          	mov    QWORD PTR [rsp],rax
   1698c:	48 8d 7c 24 10       	lea    rdi,[rsp+0x10]
   16991:	e8 7a ff ff ff       	call   16910 <_ZN6x86_6410structures6paging10page_table1_16InternalBitFlags4bits17h473cdb8cdb1f9ed0E>
   16996:	48 89 c1             	mov    rcx,rax
   16999:	48 8b 04 24          	mov    rax,QWORD PTR [rsp]
   1699d:	48 21 c8             	and    rax,rcx
   169a0:	48 89 44 24 08       	mov    QWORD PTR [rsp+0x8],rax
   169a5:	48 8d 7c 24 10       	lea    rdi,[rsp+0x10]
   169aa:	e8 61 ff ff ff       	call   16910 <_ZN6x86_6410structures6paging10page_table1_16InternalBitFlags4bits17h473cdb8cdb1f9ed0E>
   169af:	48 89 c1             	mov    rcx,rax
   169b2:	48 8b 44 24 08       	mov    rax,QWORD PTR [rsp+0x8]
   169b7:	48 39 c8             	cmp    rax,rcx
   169ba:	0f 94 c0             	sete   al
   169bd:	24 01                	and    al,0x1
   169bf:	0f b6 c0             	movzx  eax,al
   169c2:	48 83 c4 28          	add    rsp,0x28
   169c6:	c3                   	ret
   169c7:	cc                   	int3
   169c8:	cc                   	int3
   169c9:	cc                   	int3
   169ca:	cc                   	int3
   169cb:	cc                   	int3
   169cc:	cc                   	int3
   169cd:	cc                   	int3
   169ce:	cc                   	int3
   169cf:	cc                   	int3

00000000000169d0 <_ZN6x86_6410structures6paging10page_table1_16InternalBitFlags8is_empty17h80012582f95431c1E>:
   169d0:	50                   	push   rax
   169d1:	48 89 3c 24          	mov    QWORD PTR [rsp],rdi
   169d5:	e8 36 ff ff ff       	call   16910 <_ZN6x86_6410structures6paging10page_table1_16InternalBitFlags4bits17h473cdb8cdb1f9ed0E>
   169da:	48 83 f8 00          	cmp    rax,0x0
   169de:	0f 94 c0             	sete   al
   169e1:	24 01                	and    al,0x1
   169e3:	0f b6 c0             	movzx  eax,al
   169e6:	59                   	pop    rcx
   169e7:	c3                   	ret
   169e8:	cc                   	int3
   169e9:	cc                   	int3
   169ea:	cc                   	int3
   169eb:	cc                   	int3
   169ec:	cc                   	int3
   169ed:	cc                   	int3
   169ee:	cc                   	int3
   169ef:	cc                   	int3

00000000000169f0 <_ZN6x86_6410structures6paging10page_table1_72_$LT$impl$u20$x86_64..structures..paging..page_table..PageTableFlags$GT$12intersection17h47eaea911e19475aE>:
   169f0:	48 83 ec 18          	sub    rsp,0x18
   169f4:	48 89 7c 24 08       	mov    QWORD PTR [rsp+0x8],rdi
   169f9:	48 89 74 24 10       	mov    QWORD PTR [rsp+0x10],rsi
   169fe:	e8 2d ee ff ff       	call   15830 <_ZN6x86_6410structures6paging10page_table1_16InternalBitFlags12intersection17h9a2718d95c74f74eE>
   16a03:	48 83 c4 18          	add    rsp,0x18
   16a07:	c3                   	ret
   16a08:	cc                   	int3
   16a09:	cc                   	int3
   16a0a:	cc                   	int3
   16a0b:	cc                   	int3
   16a0c:	cc                   	int3
   16a0d:	cc                   	int3
   16a0e:	cc                   	int3
   16a0f:	cc                   	int3

0000000000016a10 <_ZN6x86_6410structures6paging10page_table1_72_$LT$impl$u20$x86_64..structures..paging..page_table..PageTableFlags$GT$18from_bits_truncate17h54a0fc3675e0591eE>:
   16a10:	50                   	push   rax
   16a11:	48 89 3c 24          	mov    QWORD PTR [rsp],rdi
   16a15:	e8 76 ee ff ff       	call   15890 <_ZN6x86_6410structures6paging10page_table1_16InternalBitFlags18from_bits_truncate17h4b55f9e308420012E>
   16a1a:	59                   	pop    rcx
   16a1b:	c3                   	ret
   16a1c:	cc                   	int3
   16a1d:	cc                   	int3
   16a1e:	cc                   	int3
   16a1f:	cc                   	int3

0000000000016a20 <_ZN6x86_6410structures6paging10page_table1_72_$LT$impl$u20$x86_64..structures..paging..page_table..PageTableFlags$GT$4bits17h1535141e69d046feE>:
   16a20:	50                   	push   rax
   16a21:	48 89 3c 24          	mov    QWORD PTR [rsp],rdi
   16a25:	e8 e6 fe ff ff       	call   16910 <_ZN6x86_6410structures6paging10page_table1_16InternalBitFlags4bits17h473cdb8cdb1f9ed0E>
   16a2a:	59                   	pop    rcx
   16a2b:	c3                   	ret
   16a2c:	cc                   	int3
   16a2d:	cc                   	int3
   16a2e:	cc                   	int3
   16a2f:	cc                   	int3

0000000000016a30 <_ZN6x86_6410structures6paging10page_table1_72_$LT$impl$u20$x86_64..structures..paging..page_table..PageTableFlags$GT$5union17he7b3744cfe6d2578E>:
   16a30:	48 83 ec 18          	sub    rsp,0x18
   16a34:	48 89 7c 24 08       	mov    QWORD PTR [rsp+0x8],rdi
   16a39:	48 89 74 24 10       	mov    QWORD PTR [rsp+0x10],rsi
   16a3e:	e8 dd fe ff ff       	call   16920 <_ZN6x86_6410structures6paging10page_table1_16InternalBitFlags5union17h2c5bda1eb9a775cdE>
   16a43:	48 83 c4 18          	add    rsp,0x18
   16a47:	c3                   	ret
   16a48:	cc                   	int3
   16a49:	cc                   	int3
   16a4a:	cc                   	int3
   16a4b:	cc                   	int3
   16a4c:	cc                   	int3
   16a4d:	cc                   	int3
   16a4e:	cc                   	int3
   16a4f:	cc                   	int3

0000000000016a50 <_ZN6x86_6410structures6paging10page_table1_72_$LT$impl$u20$x86_64..structures..paging..page_table..PageTableFlags$GT$8contains17h977f7d5c8c07421fE>:
   16a50:	48 83 ec 18          	sub    rsp,0x18
   16a54:	48 89 7c 24 08       	mov    QWORD PTR [rsp+0x8],rdi
   16a59:	48 89 74 24 10       	mov    QWORD PTR [rsp+0x10],rsi
   16a5e:	e8 0d ff ff ff       	call   16970 <_ZN6x86_6410structures6paging10page_table1_16InternalBitFlags8contains17h5e96cfb4ee542313E>
   16a63:	24 01                	and    al,0x1
   16a65:	0f b6 c0             	movzx  eax,al
   16a68:	48 83 c4 18          	add    rsp,0x18
   16a6c:	c3                   	ret
   16a6d:	cc                   	int3
   16a6e:	cc                   	int3
   16a6f:	cc                   	int3

0000000000016a70 <_ZN6x86_6410structures6paging10page_table1_72_$LT$impl$u20$x86_64..structures..paging..page_table..PageTableFlags$GT$8is_empty17h75dd9c42d6b13d2aE>:
   16a70:	50                   	push   rax
   16a71:	48 89 3c 24          	mov    QWORD PTR [rsp],rdi
   16a75:	e8 56 ff ff ff       	call   169d0 <_ZN6x86_6410structures6paging10page_table1_16InternalBitFlags8is_empty17h80012582f95431c1E>
   16a7a:	24 01                	and    al,0x1
   16a7c:	0f b6 c0             	movzx  eax,al
   16a7f:	59                   	pop    rcx
   16a80:	c3                   	ret
   16a81:	cc                   	int3
   16a82:	cc                   	int3
   16a83:	cc                   	int3
   16a84:	cc                   	int3
   16a85:	cc                   	int3
   16a86:	cc                   	int3
   16a87:	cc                   	int3
   16a88:	cc                   	int3
   16a89:	cc                   	int3
   16a8a:	cc                   	int3
   16a8b:	cc                   	int3
   16a8c:	cc                   	int3
   16a8d:	cc                   	int3
   16a8e:	cc                   	int3
   16a8f:	cc                   	int3

0000000000016a90 <_ZN6x86_6410structures6paging10page_table9PageTable4zero17h38c1fd5286a010d9E>:
   16a90:	48 83 ec 68          	sub    rsp,0x68
   16a94:	48 89 fe             	mov    rsi,rdi
   16a97:	48 89 74 24 58       	mov    QWORD PTR [rsp+0x58],rsi
   16a9c:	48 8d 7c 24 20       	lea    rdi,[rsp+0x20]
   16aa1:	e8 7a 00 00 00       	call   16b20 <_ZN6x86_6410structures6paging10page_table9PageTable8iter_mut17hba19dbbe35a68570E>
   16aa6:	48 8d 7c 24 08       	lea    rdi,[rsp+0x8]
   16aab:	48 8d 74 24 20       	lea    rsi,[rsp+0x20]
   16ab0:	e8 0b e9 ff ff       	call   153c0 <_ZN63_$LT$I$u20$as$u20$core..iter..traits..collect..IntoIterator$GT$9into_iter17hcd3b60b532f52105E>
   16ab5:	48 8b 44 24 08       	mov    rax,QWORD PTR [rsp+0x8]
   16aba:	48 89 44 24 38       	mov    QWORD PTR [rsp+0x38],rax
   16abf:	48 8b 44 24 10       	mov    rax,QWORD PTR [rsp+0x10]
   16ac4:	48 89 44 24 40       	mov    QWORD PTR [rsp+0x40],rax
   16ac9:	48 8b 44 24 18       	mov    rax,QWORD PTR [rsp+0x18]
   16ace:	48 89 44 24 48       	mov    QWORD PTR [rsp+0x48],rax
   16ad3:	48 8d 7c 24 38       	lea    rdi,[rsp+0x38]
   16ad8:	e8 73 e8 ff ff       	call   15350 <_ZN102_$LT$core..iter..adapters..map..Map$LT$I$C$F$GT$$u20$as$u20$core..iter..traits..iterator..Iterator$GT$4next17h2150c779ff91b3b7E>
   16add:	48 89 44 24 50       	mov    QWORD PTR [rsp+0x50],rax
   16ae2:	48 8b 54 24 50       	mov    rdx,QWORD PTR [rsp+0x50]
   16ae7:	b8 01 00 00 00       	mov    eax,0x1
   16aec:	31 c9                	xor    ecx,ecx
   16aee:	48 83 fa 00          	cmp    rdx,0x0
   16af2:	48 0f 44 c1          	cmove  rax,rcx
   16af6:	48 83 f8 00          	cmp    rax,0x0
   16afa:	75 05                	jne    16b01 <_ZN6x86_6410structures6paging10page_table9PageTable4zero17h38c1fd5286a010d9E+0x71>
   16afc:	48 83 c4 68          	add    rsp,0x68
   16b00:	c3                   	ret
   16b01:	48 8b 7c 24 50       	mov    rdi,QWORD PTR [rsp+0x50]
   16b06:	48 89 7c 24 60       	mov    QWORD PTR [rsp+0x60],rdi
   16b0b:	e8 10 ea ff ff       	call   15520 <_ZN6x86_6410structures6paging10page_table14PageTableEntry10set_unused17hc47714004f1b89b9E>
   16b10:	eb c1                	jmp    16ad3 <_ZN6x86_6410structures6paging10page_table9PageTable4zero17h38c1fd5286a010d9E+0x43>
   16b12:	cc                   	int3
   16b13:	cc                   	int3
   16b14:	cc                   	int3
   16b15:	cc                   	int3
   16b16:	cc                   	int3
   16b17:	cc                   	int3
   16b18:	cc                   	int3
   16b19:	cc                   	int3
   16b1a:	cc                   	int3
   16b1b:	cc                   	int3
   16b1c:	cc                   	int3
   16b1d:	cc                   	int3
   16b1e:	cc                   	int3
   16b1f:	cc                   	int3

0000000000016b20 <_ZN6x86_6410structures6paging10page_table9PageTable8iter_mut17hba19dbbe35a68570E>:
   16b20:	48 83 ec 28          	sub    rsp,0x28
   16b24:	48 89 f1             	mov    rcx,rsi
   16b27:	48 89 f8             	mov    rax,rdi
   16b2a:	48 89 04 24          	mov    QWORD PTR [rsp],rax
   16b2e:	48 89 4c 24 08       	mov    QWORD PTR [rsp+0x8],rcx
   16b33:	48 89 4c 24 18       	mov    QWORD PTR [rsp+0x18],rcx
   16b38:	48 c7 44 24 20 00 02 	mov    QWORD PTR [rsp+0x20],0x200
   16b3f:	00 00 
   16b41:	48 89 4c 24 10       	mov    QWORD PTR [rsp+0x10],rcx
   16b46:	31 c0                	xor    eax,eax
   16b48:	31 c0                	xor    eax,eax
   16b4a:	89 c6                	mov    esi,eax
   16b4c:	ba 00 02 00 00       	mov    edx,0x200
   16b51:	e8 2a 0f 00 00       	call   17a80 <_ZN4core4iter6traits8iterator8Iterator3map17h273c4c8be02bf078E>
   16b56:	48 8b 04 24          	mov    rax,QWORD PTR [rsp]
   16b5a:	48 83 c4 28          	add    rsp,0x28
   16b5e:	c3                   	ret
   16b5f:	cc                   	int3

0000000000016b60 <_ZN4core3fmt8builders9DebugList7entries17he19d08dd6d17d45aE>:
   16b60:	48 83 ec 58          	sub    rsp,0x58
   16b64:	48 89 54 24 08       	mov    QWORD PTR [rsp+0x8],rdx
   16b69:	48 89 f0             	mov    rax,rsi
   16b6c:	48 8b 74 24 08       	mov    rsi,QWORD PTR [rsp+0x8]
   16b71:	48 89 44 24 10       	mov    QWORD PTR [rsp+0x10],rax
   16b76:	48 89 f8             	mov    rax,rdi
   16b79:	48 8b 7c 24 10       	mov    rdi,QWORD PTR [rsp+0x10]
   16b7e:	48 89 44 24 18       	mov    QWORD PTR [rsp+0x18],rax
   16b83:	48 89 44 24 40       	mov    QWORD PTR [rsp+0x40],rax
   16b88:	48 89 7c 24 48       	mov    QWORD PTR [rsp+0x48],rdi
   16b8d:	48 89 74 24 50       	mov    QWORD PTR [rsp+0x50],rsi
   16b92:	e8 29 30 00 00       	call   19bc0 <_ZN63_$LT$I$u20$as$u20$core..iter..traits..collect..IntoIterator$GT$9into_iter17h5ee969737bdf5d7eE>
   16b97:	48 89 44 24 20       	mov    QWORD PTR [rsp+0x20],rax
   16b9c:	48 89 54 24 28       	mov    QWORD PTR [rsp+0x28],rdx
   16ba1:	48 8b 05 e0 04 03 00 	mov    rax,QWORD PTR [rip+0x304e0]        # 47088 <_DYNAMIC+0x1f0>
   16ba8:	48 8d 7c 24 20       	lea    rdi,[rsp+0x20]
   16bad:	ff d0                	call   rax
   16baf:	48 89 44 24 30       	mov    QWORD PTR [rsp+0x30],rax
   16bb4:	48 8b 54 24 30       	mov    rdx,QWORD PTR [rsp+0x30]
   16bb9:	b8 01 00 00 00       	mov    eax,0x1
   16bbe:	31 c9                	xor    ecx,ecx
   16bc0:	48 83 fa 00          	cmp    rdx,0x0
   16bc4:	48 0f 44 c1          	cmove  rax,rcx
   16bc8:	48 83 f8 00          	cmp    rax,0x0
   16bcc:	75 0a                	jne    16bd8 <_ZN4core3fmt8builders9DebugList7entries17he19d08dd6d17d45aE+0x78>
   16bce:	48 8b 44 24 18       	mov    rax,QWORD PTR [rsp+0x18]
   16bd3:	48 83 c4 58          	add    rsp,0x58
   16bd7:	c3                   	ret
   16bd8:	48 8b 7c 24 18       	mov    rdi,QWORD PTR [rsp+0x18]
   16bdd:	48 8b 44 24 30       	mov    rax,QWORD PTR [rsp+0x30]
   16be2:	48 89 44 24 38       	mov    QWORD PTR [rsp+0x38],rax
   16be7:	48 8d 15 2a 7f 02 00 	lea    rdx,[rip+0x27f2a]        # 3eb18 <memmove+0x13e8>
   16bee:	48 8b 05 9b 04 03 00 	mov    rax,QWORD PTR [rip+0x3049b]        # 47090 <_DYNAMIC+0x1f8>
   16bf5:	48 8d 74 24 38       	lea    rsi,[rsp+0x38]
   16bfa:	ff d0                	call   rax
   16bfc:	eb a3                	jmp    16ba1 <_ZN4core3fmt8builders9DebugList7entries17he19d08dd6d17d45aE+0x41>
   16bfe:	cc                   	int3
   16bff:	cc                   	int3

0000000000016c00 <_ZN6x86_6410structures6paging6mapper20MapperFlush$LT$S$GT$5flush17h57be671f8a1a9b62E>:
   16c00:	48 83 ec 28          	sub    rsp,0x28
   16c04:	48 89 7c 24 10       	mov    QWORD PTR [rsp+0x10],rdi
   16c09:	48 8b 44 24 10       	mov    rax,QWORD PTR [rsp+0x10]
   16c0e:	48 89 44 24 08       	mov    QWORD PTR [rsp+0x8],rax
   16c13:	48 8b 44 24 08       	mov    rax,QWORD PTR [rsp+0x8]
   16c18:	48 89 44 24 18       	mov    QWORD PTR [rsp+0x18],rax
   16c1d:	48 8b 44 24 18       	mov    rax,QWORD PTR [rsp+0x18]
   16c22:	48 89 44 24 20       	mov    QWORD PTR [rsp+0x20],rax
   16c27:	48 8b 7c 24 20       	mov    rdi,QWORD PTR [rsp+0x20]
   16c2c:	48 8b 05 65 04 03 00 	mov    rax,QWORD PTR [rip+0x30465]        # 47098 <_DYNAMIC+0x200>
   16c33:	ff d0                	call   rax
   16c35:	48 89 c7             	mov    rdi,rax
   16c38:	e8 33 0e 00 00       	call   17a70 <_ZN6x86_6412instructions3tlb5flush17h0b2cc67fcb1df128E>
   16c3d:	48 83 c4 28          	add    rsp,0x28
   16c41:	c3                   	ret
   16c42:	cc                   	int3
   16c43:	cc                   	int3
   16c44:	cc                   	int3
   16c45:	cc                   	int3
   16c46:	cc                   	int3
   16c47:	cc                   	int3
   16c48:	cc                   	int3
   16c49:	cc                   	int3
   16c4a:	cc                   	int3
   16c4b:	cc                   	int3
   16c4c:	cc                   	int3
   16c4d:	cc                   	int3
   16c4e:	cc                   	int3
   16c4f:	cc                   	int3

0000000000016c50 <_ZN92_$LT$x86_64..structures..paging..mapper..MapToError$LT$S$GT$$u20$as$u20$core..fmt..Debug$GT$3fmt17ha101e76a3d9411c9E>:
   16c50:	48 83 ec 38          	sub    rsp,0x38
   16c54:	48 89 34 24          	mov    QWORD PTR [rsp],rsi
   16c58:	48 89 7c 24 08       	mov    QWORD PTR [rsp+0x8],rdi
   16c5d:	48 89 7c 24 28       	mov    QWORD PTR [rsp+0x28],rdi
   16c62:	48 89 74 24 30       	mov    QWORD PTR [rsp+0x30],rsi
   16c67:	48 8b 07             	mov    rax,QWORD PTR [rdi]
   16c6a:	48 89 44 24 10       	mov    QWORD PTR [rsp+0x10],rax
   16c6f:	48 85 c0             	test   rax,rax
   16c72:	74 13                	je     16c87 <_ZN92_$LT$x86_64..structures..paging..mapper..MapToError$LT$S$GT$$u20$as$u20$core..fmt..Debug$GT$3fmt17ha101e76a3d9411c9E+0x37>
   16c74:	eb 00                	jmp    16c76 <_ZN92_$LT$x86_64..structures..paging..mapper..MapToError$LT$S$GT$$u20$as$u20$core..fmt..Debug$GT$3fmt17ha101e76a3d9411c9E+0x26>
   16c76:	48 8b 44 24 10       	mov    rax,QWORD PTR [rsp+0x10]
   16c7b:	48 83 e8 01          	sub    rax,0x1
   16c7f:	74 27                	je     16ca8 <_ZN92_$LT$x86_64..structures..paging..mapper..MapToError$LT$S$GT$$u20$as$u20$core..fmt..Debug$GT$3fmt17ha101e76a3d9411c9E+0x58>
   16c81:	eb 00                	jmp    16c83 <_ZN92_$LT$x86_64..structures..paging..mapper..MapToError$LT$S$GT$$u20$as$u20$core..fmt..Debug$GT$3fmt17ha101e76a3d9411c9E+0x33>
   16c83:	eb 44                	jmp    16cc9 <_ZN92_$LT$x86_64..structures..paging..mapper..MapToError$LT$S$GT$$u20$as$u20$core..fmt..Debug$GT$3fmt17ha101e76a3d9411c9E+0x79>
   16c85:	0f 0b                	ud2
   16c87:	48 8b 3c 24          	mov    rdi,QWORD PTR [rsp]
   16c8b:	48 8d 35 d3 81 ff ff 	lea    rsi,[rip+0xffffffffffff81d3]        # ee65 <_ZN6diy_os6serial7SERIAL117h2f329108989edb16E-0x98e>
   16c92:	48 8b 05 07 04 03 00 	mov    rax,QWORD PTR [rip+0x30407]        # 470a0 <_DYNAMIC+0x208>
   16c99:	ba 15 00 00 00       	mov    edx,0x15
   16c9e:	ff d0                	call   rax
   16ca0:	24 01                	and    al,0x1
   16ca2:	88 44 24 1f          	mov    BYTE PTR [rsp+0x1f],al
   16ca6:	eb 5a                	jmp    16d02 <_ZN92_$LT$x86_64..structures..paging..mapper..MapToError$LT$S$GT$$u20$as$u20$core..fmt..Debug$GT$3fmt17ha101e76a3d9411c9E+0xb2>
   16ca8:	48 8b 3c 24          	mov    rdi,QWORD PTR [rsp]
   16cac:	48 8d 35 c7 81 ff ff 	lea    rsi,[rip+0xffffffffffff81c7]        # ee7a <_ZN6diy_os6serial7SERIAL117h2f329108989edb16E-0x979>
   16cb3:	48 8b 05 e6 03 03 00 	mov    rax,QWORD PTR [rip+0x303e6]        # 470a0 <_DYNAMIC+0x208>
   16cba:	ba 13 00 00 00       	mov    edx,0x13
   16cbf:	ff d0                	call   rax
   16cc1:	24 01                	and    al,0x1
   16cc3:	88 44 24 1f          	mov    BYTE PTR [rsp+0x1f],al
   16cc7:	eb 39                	jmp    16d02 <_ZN92_$LT$x86_64..structures..paging..mapper..MapToError$LT$S$GT$$u20$as$u20$core..fmt..Debug$GT$3fmt17ha101e76a3d9411c9E+0xb2>
   16cc9:	48 8b 3c 24          	mov    rdi,QWORD PTR [rsp]
   16ccd:	48 8b 44 24 08       	mov    rax,QWORD PTR [rsp+0x8]
   16cd2:	48 83 c0 08          	add    rax,0x8
   16cd6:	48 89 44 24 20       	mov    QWORD PTR [rsp+0x20],rax
   16cdb:	48 8d 35 ab 81 ff ff 	lea    rsi,[rip+0xffffffffffff81ab]        # ee8d <_ZN6diy_os6serial7SERIAL117h2f329108989edb16E-0x966>
   16ce2:	4c 8d 05 4f 7e 02 00 	lea    r8,[rip+0x27e4f]        # 3eb38 <memmove+0x1408>
   16ce9:	48 8b 05 b8 03 03 00 	mov    rax,QWORD PTR [rip+0x303b8]        # 470a8 <_DYNAMIC+0x210>
   16cf0:	ba 11 00 00 00       	mov    edx,0x11
   16cf5:	48 8d 4c 24 20       	lea    rcx,[rsp+0x20]
   16cfa:	ff d0                	call   rax
   16cfc:	24 01                	and    al,0x1
   16cfe:	88 44 24 1f          	mov    BYTE PTR [rsp+0x1f],al
   16d02:	8a 44 24 1f          	mov    al,BYTE PTR [rsp+0x1f]
   16d06:	24 01                	and    al,0x1
   16d08:	0f b6 c0             	movzx  eax,al
   16d0b:	48 83 c4 38          	add    rsp,0x38
   16d0f:	c3                   	ret

0000000000016d10 <_ZN75_$LT$usize$u20$as$u20$core..slice..index..SliceIndex$LT$$u5b$T$u5d$$GT$$GT$5index17haad6a396dbf8356cE>:
   16d10:	48 83 ec 38          	sub    rsp,0x38
   16d14:	48 89 0c 24          	mov    QWORD PTR [rsp],rcx
   16d18:	48 89 54 24 08       	mov    QWORD PTR [rsp+0x8],rdx
   16d1d:	48 89 74 24 10       	mov    QWORD PTR [rsp+0x10],rsi
   16d22:	48 89 7c 24 18       	mov    QWORD PTR [rsp+0x18],rdi
   16d27:	48 89 7c 24 20       	mov    QWORD PTR [rsp+0x20],rdi
   16d2c:	48 89 74 24 28       	mov    QWORD PTR [rsp+0x28],rsi
   16d31:	48 89 54 24 30       	mov    QWORD PTR [rsp+0x30],rdx
   16d36:	48 39 d7             	cmp    rdi,rdx
   16d39:	73 16                	jae    16d51 <_ZN75_$LT$usize$u20$as$u20$core..slice..index..SliceIndex$LT$$u5b$T$u5d$$GT$$GT$5index17haad6a396dbf8356cE+0x41>
   16d3b:	48 8b 44 24 10       	mov    rax,QWORD PTR [rsp+0x10]
   16d40:	48 8b 4c 24 18       	mov    rcx,QWORD PTR [rsp+0x18]
   16d45:	48 c1 e1 04          	shl    rcx,0x4
   16d49:	48 01 c8             	add    rax,rcx
   16d4c:	48 83 c4 38          	add    rsp,0x38
   16d50:	c3                   	ret
   16d51:	48 8b 14 24          	mov    rdx,QWORD PTR [rsp]
   16d55:	48 8b 74 24 08       	mov    rsi,QWORD PTR [rsp+0x8]
   16d5a:	48 8b 7c 24 18       	mov    rdi,QWORD PTR [rsp+0x18]
   16d5f:	48 8b 05 f2 02 03 00 	mov    rax,QWORD PTR [rip+0x302f2]        # 47058 <_DYNAMIC+0x1c0>
   16d66:	ff d0                	call   rax
   16d68:	cc                   	int3
   16d69:	cc                   	int3
   16d6a:	cc                   	int3
   16d6b:	cc                   	int3
   16d6c:	cc                   	int3
   16d6d:	cc                   	int3
   16d6e:	cc                   	int3
   16d6f:	cc                   	int3

0000000000016d70 <_ZN14bootloader_api4info126_$LT$impl$u20$core..convert..From$LT$bootloader_api..info..Optional$LT$T$GT$$GT$$u20$for$u20$core..option..Option$LT$T$GT$$GT$4from17h254c08142338c888E>:
   16d70:	48 83 ec 28          	sub    rsp,0x28
   16d74:	89 3c 24             	mov    DWORD PTR [rsp],edi
   16d77:	48 89 74 24 08       	mov    QWORD PTR [rsp+0x8],rsi
   16d7c:	8b 04 24             	mov    eax,DWORD PTR [rsp]
   16d7f:	48 83 f8 00          	cmp    rax,0x0
   16d83:	75 1a                	jne    16d9f <_ZN14bootloader_api4info126_$LT$impl$u20$core..convert..From$LT$bootloader_api..info..Optional$LT$T$GT$$GT$$u20$for$u20$core..option..Option$LT$T$GT$$GT$4from17h254c08142338c888E+0x2f>
   16d85:	48 8b 44 24 08       	mov    rax,QWORD PTR [rsp+0x8]
   16d8a:	48 89 44 24 20       	mov    QWORD PTR [rsp+0x20],rax
   16d8f:	48 89 44 24 18       	mov    QWORD PTR [rsp+0x18],rax
   16d94:	48 c7 44 24 10 01 00 	mov    QWORD PTR [rsp+0x10],0x1
   16d9b:	00 00 
   16d9d:	eb 09                	jmp    16da8 <_ZN14bootloader_api4info126_$LT$impl$u20$core..convert..From$LT$bootloader_api..info..Optional$LT$T$GT$$GT$$u20$for$u20$core..option..Option$LT$T$GT$$GT$4from17h254c08142338c888E+0x38>
   16d9f:	48 c7 44 24 10 00 00 	mov    QWORD PTR [rsp+0x10],0x0
   16da6:	00 00 
   16da8:	48 8b 44 24 10       	mov    rax,QWORD PTR [rsp+0x10]
   16dad:	48 8b 54 24 18       	mov    rdx,QWORD PTR [rsp+0x18]
   16db2:	48 83 c4 28          	add    rsp,0x28
   16db6:	c3                   	ret
   16db7:	cc                   	int3
   16db8:	cc                   	int3
   16db9:	cc                   	int3
   16dba:	cc                   	int3
   16dbb:	cc                   	int3
   16dbc:	cc                   	int3
   16dbd:	cc                   	int3
   16dbe:	cc                   	int3
   16dbf:	cc                   	int3

0000000000016dc0 <_ZN4core6option15Option$LT$T$GT$5ok_or17h1f60447d0d18fa0bE>:
   16dc0:	48 83 ec 38          	sub    rsp,0x38
   16dc4:	48 89 14 24          	mov    QWORD PTR [rsp],rdx
   16dc8:	48 89 74 24 08       	mov    QWORD PTR [rsp+0x8],rsi
   16dcd:	48 89 7c 24 10       	mov    QWORD PTR [rsp+0x10],rdi
   16dd2:	48 89 7c 24 18       	mov    QWORD PTR [rsp+0x18],rdi
   16dd7:	48 83 3e 00          	cmp    QWORD PTR [rsi],0x0
   16ddb:	75 2d                	jne    16e0a <_ZN4core6option15Option$LT$T$GT$5ok_or17h1f60447d0d18fa0bE+0x4a>
   16ddd:	48 8b 44 24 10       	mov    rax,QWORD PTR [rsp+0x10]
   16de2:	48 8b 0c 24          	mov    rcx,QWORD PTR [rsp]
   16de6:	48 8b 11             	mov    rdx,QWORD PTR [rcx]
   16de9:	48 89 54 24 28       	mov    QWORD PTR [rsp+0x28],rdx
   16dee:	48 8b 49 08          	mov    rcx,QWORD PTR [rcx+0x8]
   16df2:	48 89 4c 24 30       	mov    QWORD PTR [rsp+0x30],rcx
   16df7:	48 8b 4c 24 28       	mov    rcx,QWORD PTR [rsp+0x28]
   16dfc:	48 89 08             	mov    QWORD PTR [rax],rcx
   16dff:	48 8b 4c 24 30       	mov    rcx,QWORD PTR [rsp+0x30]
   16e04:	48 89 48 08          	mov    QWORD PTR [rax+0x8],rcx
   16e08:	eb 23                	jmp    16e2d <_ZN4core6option15Option$LT$T$GT$5ok_or17h1f60447d0d18fa0bE+0x6d>
   16e0a:	48 8b 44 24 10       	mov    rax,QWORD PTR [rsp+0x10]
   16e0f:	48 8b 4c 24 08       	mov    rcx,QWORD PTR [rsp+0x8]
   16e14:	48 8b 49 08          	mov    rcx,QWORD PTR [rcx+0x8]
   16e18:	48 89 4c 24 20       	mov    QWORD PTR [rsp+0x20],rcx
   16e1d:	48 8b 4c 24 20       	mov    rcx,QWORD PTR [rsp+0x20]
   16e22:	48 89 48 08          	mov    QWORD PTR [rax+0x8],rcx
   16e26:	48 c7 00 03 00 00 00 	mov    QWORD PTR [rax],0x3
   16e2d:	48 8b 44 24 18       	mov    rax,QWORD PTR [rsp+0x18]
   16e32:	48 83 c4 38          	add    rsp,0x38
   16e36:	c3                   	ret
   16e37:	cc                   	int3
   16e38:	cc                   	int3
   16e39:	cc                   	int3
   16e3a:	cc                   	int3
   16e3b:	cc                   	int3
   16e3c:	cc                   	int3
   16e3d:	cc                   	int3
   16e3e:	cc                   	int3
   16e3f:	cc                   	int3

0000000000016e40 <_ZN183_$LT$x86_64..structures..paging..mapper..offset_page_table..OffsetPageTable$u20$as$u20$x86_64..structures..paging..mapper..Mapper$LT$x86_64..structures..paging..page..Size4KiB$GT$$GT$23map_to_with_table_flags17h84c3b01675cf688cE>:
   16e40:	48 83 ec 68          	sub    rsp,0x68
   16e44:	48 89 f8             	mov    rax,rdi
   16e47:	48 89 44 24 08       	mov    QWORD PTR [rsp+0x8],rax
   16e4c:	4c 8b 54 24 70       	mov    r10,QWORD PTR [rsp+0x70]
   16e51:	48 89 54 24 18       	mov    QWORD PTR [rsp+0x18],rdx
   16e56:	48 8b 44 24 18       	mov    rax,QWORD PTR [rsp+0x18]
   16e5b:	48 89 44 24 10       	mov    QWORD PTR [rsp+0x10],rax
   16e60:	48 89 4c 24 28       	mov    QWORD PTR [rsp+0x28],rcx
   16e65:	48 8b 44 24 28       	mov    rax,QWORD PTR [rsp+0x28]
   16e6a:	48 89 44 24 20       	mov    QWORD PTR [rsp+0x20],rax
   16e6f:	48 89 74 24 30       	mov    QWORD PTR [rsp+0x30],rsi
   16e74:	4c 89 44 24 38       	mov    QWORD PTR [rsp+0x38],r8
   16e79:	4c 89 4c 24 40       	mov    QWORD PTR [rsp+0x40],r9
   16e7e:	48 8b 44 24 10       	mov    rax,QWORD PTR [rsp+0x10]
   16e83:	48 89 44 24 48       	mov    QWORD PTR [rsp+0x48],rax
   16e88:	48 8b 44 24 48       	mov    rax,QWORD PTR [rsp+0x48]
   16e8d:	48 89 44 24 50       	mov    QWORD PTR [rsp+0x50],rax
   16e92:	48 8b 54 24 50       	mov    rdx,QWORD PTR [rsp+0x50]
   16e97:	48 8b 44 24 20       	mov    rax,QWORD PTR [rsp+0x20]
   16e9c:	48 89 44 24 58       	mov    QWORD PTR [rsp+0x58],rax
   16ea1:	48 8b 44 24 58       	mov    rax,QWORD PTR [rsp+0x58]
   16ea6:	48 89 44 24 60       	mov    QWORD PTR [rsp+0x60],rax
   16eab:	48 8b 4c 24 60       	mov    rcx,QWORD PTR [rsp+0x60]
   16eb0:	48 89 e0             	mov    rax,rsp
   16eb3:	4c 89 10             	mov    QWORD PTR [rax],r10
   16eb6:	e8 d5 03 00 00       	call   17290 <_ZN192_$LT$x86_64..structures..paging..mapper..mapped_page_table..MappedPageTable$LT$P$GT$$u20$as$u20$x86_64..structures..paging..mapper..Mapper$LT$x86_64..structures..paging..page..Size4KiB$GT$$GT$23map_to_with_table_flags17hf1a95aa3cf3c0784E>
   16ebb:	48 8b 44 24 08       	mov    rax,QWORD PTR [rsp+0x8]
   16ec0:	48 83 c4 68          	add    rsp,0x68
   16ec4:	c3                   	ret
   16ec5:	cc                   	int3
   16ec6:	cc                   	int3
   16ec7:	cc                   	int3
   16ec8:	cc                   	int3
   16ec9:	cc                   	int3
   16eca:	cc                   	int3
   16ecb:	cc                   	int3
   16ecc:	cc                   	int3
   16ecd:	cc                   	int3
   16ece:	cc                   	int3
   16ecf:	cc                   	int3

0000000000016ed0 <_ZN6x86_6410structures6paging6mapper6Mapper6map_to17hfb8ba4da193e2c57E>:
   16ed0:	48 81 ec 98 00 00 00 	sub    rsp,0x98
   16ed7:	4c 89 4c 24 10       	mov    QWORD PTR [rsp+0x10],r9
   16edc:	4c 89 44 24 28       	mov    QWORD PTR [rsp+0x28],r8
   16ee1:	48 89 74 24 20       	mov    QWORD PTR [rsp+0x20],rsi
   16ee6:	48 89 7c 24 18       	mov    QWORD PTR [rsp+0x18],rdi
   16eeb:	48 89 7c 24 30       	mov    QWORD PTR [rsp+0x30],rdi
   16ef0:	48 89 54 24 40       	mov    QWORD PTR [rsp+0x40],rdx
   16ef5:	48 8b 44 24 40       	mov    rax,QWORD PTR [rsp+0x40]
   16efa:	48 89 44 24 38       	mov    QWORD PTR [rsp+0x38],rax
   16eff:	48 89 4c 24 50       	mov    QWORD PTR [rsp+0x50],rcx
   16f04:	48 8b 44 24 50       	mov    rax,QWORD PTR [rsp+0x50]
   16f09:	48 89 44 24 48       	mov    QWORD PTR [rsp+0x48],rax
   16f0e:	48 89 74 24 58       	mov    QWORD PTR [rsp+0x58],rsi
   16f13:	4c 89 44 24 60       	mov    QWORD PTR [rsp+0x60],r8
   16f18:	4c 89 4c 24 68       	mov    QWORD PTR [rsp+0x68],r9
   16f1d:	bf 01 00 00 00       	mov    edi,0x1
   16f22:	be 02 00 00 00       	mov    esi,0x2
   16f27:	e8 c4 e8 ff ff       	call   157f0 <_ZN6x86_6410structures6paging10page_table1_106_$LT$impl$u20$core..ops..bit..BitOr$u20$for$u20$x86_64..structures..paging..page_table..PageTableFlags$GT$5bitor17h3c4a53d6be740898E>
   16f2c:	48 89 c7             	mov    rdi,rax
   16f2f:	be 04 00 00 00       	mov    esi,0x4
   16f34:	e8 b7 e8 ff ff       	call   157f0 <_ZN6x86_6410structures6paging10page_table1_106_$LT$impl$u20$core..ops..bit..BitOr$u20$for$u20$x86_64..structures..paging..page_table..PageTableFlags$GT$5bitor17h3c4a53d6be740898E>
   16f39:	48 8b 7c 24 28       	mov    rdi,QWORD PTR [rsp+0x28]
   16f3e:	48 89 c6             	mov    rsi,rax
   16f41:	e8 ca e8 ff ff       	call   15810 <_ZN6x86_6410structures6paging10page_table1_107_$LT$impl$u20$core..ops..bit..BitAnd$u20$for$u20$x86_64..structures..paging..page_table..PageTableFlags$GT$6bitand17hb11cbabc6aa4568aE>
   16f46:	4c 8b 54 24 10       	mov    r10,QWORD PTR [rsp+0x10]
   16f4b:	48 8b 7c 24 18       	mov    rdi,QWORD PTR [rsp+0x18]
   16f50:	48 8b 74 24 20       	mov    rsi,QWORD PTR [rsp+0x20]
   16f55:	4c 8b 44 24 28       	mov    r8,QWORD PTR [rsp+0x28]
   16f5a:	49 89 c1             	mov    r9,rax
   16f5d:	4c 89 4c 24 70       	mov    QWORD PTR [rsp+0x70],r9
   16f62:	48 8b 44 24 38       	mov    rax,QWORD PTR [rsp+0x38]
   16f67:	48 89 44 24 78       	mov    QWORD PTR [rsp+0x78],rax
   16f6c:	48 8b 44 24 78       	mov    rax,QWORD PTR [rsp+0x78]
   16f71:	48 89 84 24 80 00 00 	mov    QWORD PTR [rsp+0x80],rax
   16f78:	00 
   16f79:	48 8b 94 24 80 00 00 	mov    rdx,QWORD PTR [rsp+0x80]
   16f80:	00 
   16f81:	48 8b 44 24 48       	mov    rax,QWORD PTR [rsp+0x48]
   16f86:	48 89 84 24 88 00 00 	mov    QWORD PTR [rsp+0x88],rax
   16f8d:	00 
   16f8e:	48 8b 84 24 88 00 00 	mov    rax,QWORD PTR [rsp+0x88]
   16f95:	00 
   16f96:	48 89 84 24 90 00 00 	mov    QWORD PTR [rsp+0x90],rax
   16f9d:	00 
   16f9e:	48 8b 8c 24 90 00 00 	mov    rcx,QWORD PTR [rsp+0x90]
   16fa5:	00 
   16fa6:	48 89 e0             	mov    rax,rsp
   16fa9:	4c 89 10             	mov    QWORD PTR [rax],r10
   16fac:	e8 8f fe ff ff       	call   16e40 <_ZN183_$LT$x86_64..structures..paging..mapper..offset_page_table..OffsetPageTable$u20$as$u20$x86_64..structures..paging..mapper..Mapper$LT$x86_64..structures..paging..page..Size4KiB$GT$$GT$23map_to_with_table_flags17h84c3b01675cf688cE>
   16fb1:	48 8b 44 24 30       	mov    rax,QWORD PTR [rsp+0x30]
   16fb6:	48 81 c4 98 00 00 00 	add    rsp,0x98
   16fbd:	c3                   	ret
   16fbe:	cc                   	int3
   16fbf:	cc                   	int3

0000000000016fc0 <_ZN42_$LT$$RF$T$u20$as$u20$core..fmt..Debug$GT$3fmt17h32b9bed11b9d32faE>:
   16fc0:	48 83 ec 18          	sub    rsp,0x18
   16fc4:	48 89 7c 24 08       	mov    QWORD PTR [rsp+0x8],rdi
   16fc9:	48 89 74 24 10       	mov    QWORD PTR [rsp+0x10],rsi
   16fce:	48 8b 3f             	mov    rdi,QWORD PTR [rdi]
   16fd1:	e8 4a 25 00 00       	call   19520 <_ZN73_$LT$diy_os..elf..ProgramHeaderTableEntry$u20$as$u20$core..fmt..Debug$GT$3fmt17h3aaef3aaf04331f7E>
   16fd6:	24 01                	and    al,0x1
   16fd8:	0f b6 c0             	movzx  eax,al
   16fdb:	48 83 c4 18          	add    rsp,0x18
   16fdf:	c3                   	ret

0000000000016fe0 <_ZN42_$LT$$RF$T$u20$as$u20$core..fmt..Debug$GT$3fmt17hd83071cdce3c11d2E>:
   16fe0:	48 83 ec 18          	sub    rsp,0x18
   16fe4:	48 89 7c 24 08       	mov    QWORD PTR [rsp+0x8],rdi
   16fe9:	48 89 74 24 10       	mov    QWORD PTR [rsp+0x10],rsi
   16fee:	48 8b 3f             	mov    rdi,QWORD PTR [rdi]
   16ff1:	e8 fa 1a 00 00       	call   18af0 <_ZN56_$LT$diy_os..elf..Header$u20$as$u20$core..fmt..Debug$GT$3fmt17h993ec4a8696ede03E>
   16ff6:	24 01                	and    al,0x1
   16ff8:	0f b6 c0             	movzx  eax,al
   16ffb:	48 83 c4 18          	add    rsp,0x18
   16fff:	c3                   	ret

0000000000017000 <_ZN64_$LT$x86_64..addr..VirtAddr$u20$as$u20$core..cmp..PartialOrd$GT$11partial_cmp17hd78bc24cf5e59152E>:
   17000:	48 83 ec 18          	sub    rsp,0x18
   17004:	48 89 7c 24 08       	mov    QWORD PTR [rsp+0x8],rdi
   17009:	48 89 74 24 10       	mov    QWORD PTR [rsp+0x10],rsi
   1700e:	e8 6d dd ff ff       	call   14d80 <_ZN4core3cmp5impls55_$LT$impl$u20$core..cmp..PartialOrd$u20$for$u20$u64$GT$11partial_cmp17h814063922f7e055dE>
   17013:	48 83 c4 18          	add    rsp,0x18
   17017:	c3                   	ret
   17018:	cc                   	int3
   17019:	cc                   	int3
   1701a:	cc                   	int3
   1701b:	cc                   	int3
   1701c:	cc                   	int3
   1701d:	cc                   	int3
   1701e:	cc                   	int3
   1701f:	cc                   	int3

0000000000017020 <_ZN6x86_644addr8PhysAddr12new_truncate17hccc7ae12171b9c73E>:
   17020:	50                   	push   rax
   17021:	48 89 f8             	mov    rax,rdi
   17024:	48 89 04 24          	mov    QWORD PTR [rsp],rax
   17028:	48 b9 ff ff ff ff ff 	movabs rcx,0xfffffffffffff
   1702f:	ff 0f 00 
   17032:	48 21 c8             	and    rax,rcx
   17035:	59                   	pop    rcx
   17036:	c3                   	ret
   17037:	cc                   	int3
   17038:	cc                   	int3
   17039:	cc                   	int3
   1703a:	cc                   	int3
   1703b:	cc                   	int3
   1703c:	cc                   	int3
   1703d:	cc                   	int3
   1703e:	cc                   	int3
   1703f:	cc                   	int3

0000000000017040 <_ZN6x86_644addr8PhysAddr3new17h0bba75620184c1f5E>:
   17040:	48 83 ec 28          	sub    rsp,0x28
   17044:	48 89 7c 24 18       	mov    QWORD PTR [rsp+0x18],rdi
   17049:	e8 52 00 00 00       	call   170a0 <_ZN6x86_644addr8PhysAddr7try_new17hbb352031d4224fe5E>
   1704e:	48 89 44 24 08       	mov    QWORD PTR [rsp+0x8],rax
   17053:	48 89 54 24 10       	mov    QWORD PTR [rsp+0x10],rdx
   17058:	48 83 7c 24 08 00    	cmp    QWORD PTR [rsp+0x8],0x0
   1705e:	75 0f                	jne    1706f <_ZN6x86_644addr8PhysAddr3new17h0bba75620184c1f5E+0x2f>
   17060:	48 8b 44 24 10       	mov    rax,QWORD PTR [rsp+0x10]
   17065:	48 89 44 24 20       	mov    QWORD PTR [rsp+0x20],rax
   1706a:	48 83 c4 28          	add    rsp,0x28
   1706e:	c3                   	ret
   1706f:	48 8d 3d 28 7e ff ff 	lea    rdi,[rip+0xffffffffffff7e28]        # ee9e <_ZN6diy_os6serial7SERIAL117h2f329108989edb16E-0x955>
   17076:	48 8d 15 db 7a 02 00 	lea    rdx,[rip+0x27adb]        # 3eb58 <memmove+0x1428>
   1707d:	48 8b 05 ec ff 02 00 	mov    rax,QWORD PTR [rip+0x2ffec]        # 47070 <_DYNAMIC+0x1d8>
   17084:	be 43 00 00 00       	mov    esi,0x43
   17089:	ff d0                	call   rax
   1708b:	cc                   	int3
   1708c:	cc                   	int3
   1708d:	cc                   	int3
   1708e:	cc                   	int3
   1708f:	cc                   	int3

0000000000017090 <_ZN6x86_644addr8PhysAddr6as_u6417hc09d4a4fde14ded3E>:
   17090:	50                   	push   rax
   17091:	48 89 f8             	mov    rax,rdi
   17094:	48 89 04 24          	mov    QWORD PTR [rsp],rax
   17098:	59                   	pop    rcx
   17099:	c3                   	ret
   1709a:	cc                   	int3
   1709b:	cc                   	int3
   1709c:	cc                   	int3
   1709d:	cc                   	int3
   1709e:	cc                   	int3
   1709f:	cc                   	int3

00000000000170a0 <_ZN6x86_644addr8PhysAddr7try_new17hbb352031d4224fe5E>:
   170a0:	48 83 ec 38          	sub    rsp,0x38
   170a4:	48 89 7c 24 08       	mov    QWORD PTR [rsp+0x8],rdi
   170a9:	48 89 7c 24 28       	mov    QWORD PTR [rsp+0x28],rdi
   170ae:	e8 6d ff ff ff       	call   17020 <_ZN6x86_644addr8PhysAddr12new_truncate17hccc7ae12171b9c73E>
   170b3:	48 8b 7c 24 08       	mov    rdi,QWORD PTR [rsp+0x8]
   170b8:	48 89 44 24 10       	mov    QWORD PTR [rsp+0x10],rax
   170bd:	48 89 44 24 30       	mov    QWORD PTR [rsp+0x30],rax
   170c2:	48 39 f8             	cmp    rax,rdi
   170c5:	74 15                	je     170dc <_ZN6x86_644addr8PhysAddr7try_new17hbb352031d4224fe5E+0x3c>
   170c7:	48 8b 44 24 08       	mov    rax,QWORD PTR [rsp+0x8]
   170cc:	48 89 44 24 20       	mov    QWORD PTR [rsp+0x20],rax
   170d1:	48 c7 44 24 18 01 00 	mov    QWORD PTR [rsp+0x18],0x1
   170d8:	00 00 
   170da:	eb 13                	jmp    170ef <_ZN6x86_644addr8PhysAddr7try_new17hbb352031d4224fe5E+0x4f>
   170dc:	48 8b 44 24 10       	mov    rax,QWORD PTR [rsp+0x10]
   170e1:	48 89 44 24 20       	mov    QWORD PTR [rsp+0x20],rax
   170e6:	48 c7 44 24 18 00 00 	mov    QWORD PTR [rsp+0x18],0x0
   170ed:	00 00 
   170ef:	48 8b 44 24 18       	mov    rax,QWORD PTR [rsp+0x18]
   170f4:	48 8b 54 24 20       	mov    rdx,QWORD PTR [rsp+0x20]
   170f9:	48 83 c4 38          	add    rsp,0x38
   170fd:	c3                   	ret
   170fe:	cc                   	int3
   170ff:	cc                   	int3

0000000000017100 <_ZN6x86_644addr8VirtAddr12new_truncate17hb8d36ab7804ef8edE>:
   17100:	50                   	push   rax
   17101:	48 89 f8             	mov    rax,rdi
   17104:	48 89 04 24          	mov    QWORD PTR [rsp],rax
   17108:	48 c1 e0 10          	shl    rax,0x10
   1710c:	48 c1 f8 10          	sar    rax,0x10
   17110:	59                   	pop    rcx
   17111:	c3                   	ret
   17112:	cc                   	int3
   17113:	cc                   	int3
   17114:	cc                   	int3
   17115:	cc                   	int3
   17116:	cc                   	int3
   17117:	cc                   	int3
   17118:	cc                   	int3
   17119:	cc                   	int3
   1711a:	cc                   	int3
   1711b:	cc                   	int3
   1711c:	cc                   	int3
   1711d:	cc                   	int3
   1711e:	cc                   	int3
   1711f:	cc                   	int3

0000000000017120 <_ZN6x86_644addr8VirtAddr3new17h22d75717f908b84fE>:
   17120:	48 83 ec 28          	sub    rsp,0x28
   17124:	48 89 7c 24 18       	mov    QWORD PTR [rsp+0x18],rdi
   17129:	e8 52 00 00 00       	call   17180 <_ZN6x86_644addr8VirtAddr7try_new17h0b368d9bd078f00fE>
   1712e:	48 89 44 24 08       	mov    QWORD PTR [rsp+0x8],rax
   17133:	48 89 54 24 10       	mov    QWORD PTR [rsp+0x10],rdx
   17138:	48 83 7c 24 08 00    	cmp    QWORD PTR [rsp+0x8],0x0
   1713e:	75 0f                	jne    1714f <_ZN6x86_644addr8VirtAddr3new17h22d75717f908b84fE+0x2f>
   17140:	48 8b 44 24 10       	mov    rax,QWORD PTR [rsp+0x10]
   17145:	48 89 44 24 20       	mov    QWORD PTR [rsp+0x20],rax
   1714a:	48 83 c4 28          	add    rsp,0x28
   1714e:	c3                   	ret
   1714f:	48 8d 3d e4 7d ff ff 	lea    rdi,[rip+0xffffffffffff7de4]        # ef3a <_ZN6diy_os6serial7SERIAL117h2f329108989edb16E-0x8b9>
   17156:	48 8d 15 13 7a 02 00 	lea    rdx,[rip+0x27a13]        # 3eb70 <memmove+0x1440>
   1715d:	48 8b 05 0c ff 02 00 	mov    rax,QWORD PTR [rip+0x2ff0c]        # 47070 <_DYNAMIC+0x1d8>
   17164:	be 36 00 00 00       	mov    esi,0x36
   17169:	ff d0                	call   rax
   1716b:	cc                   	int3
   1716c:	cc                   	int3
   1716d:	cc                   	int3
   1716e:	cc                   	int3
   1716f:	cc                   	int3

0000000000017170 <_ZN6x86_644addr8VirtAddr6as_u6417h57c98356631acb7aE>:
   17170:	50                   	push   rax
   17171:	48 89 f8             	mov    rax,rdi
   17174:	48 89 04 24          	mov    QWORD PTR [rsp],rax
   17178:	59                   	pop    rcx
   17179:	c3                   	ret
   1717a:	cc                   	int3
   1717b:	cc                   	int3
   1717c:	cc                   	int3
   1717d:	cc                   	int3
   1717e:	cc                   	int3
   1717f:	cc                   	int3

0000000000017180 <_ZN6x86_644addr8VirtAddr7try_new17h0b368d9bd078f00fE>:
   17180:	48 83 ec 38          	sub    rsp,0x38
   17184:	48 89 7c 24 08       	mov    QWORD PTR [rsp+0x8],rdi
   17189:	48 89 7c 24 28       	mov    QWORD PTR [rsp+0x28],rdi
   1718e:	e8 6d ff ff ff       	call   17100 <_ZN6x86_644addr8VirtAddr12new_truncate17hb8d36ab7804ef8edE>
   17193:	48 8b 7c 24 08       	mov    rdi,QWORD PTR [rsp+0x8]
   17198:	48 89 44 24 10       	mov    QWORD PTR [rsp+0x10],rax
   1719d:	48 89 44 24 30       	mov    QWORD PTR [rsp+0x30],rax
   171a2:	48 39 f8             	cmp    rax,rdi
   171a5:	74 15                	je     171bc <_ZN6x86_644addr8VirtAddr7try_new17h0b368d9bd078f00fE+0x3c>
   171a7:	48 8b 44 24 08       	mov    rax,QWORD PTR [rsp+0x8]
   171ac:	48 89 44 24 20       	mov    QWORD PTR [rsp+0x20],rax
   171b1:	48 c7 44 24 18 01 00 	mov    QWORD PTR [rsp+0x18],0x1
   171b8:	00 00 
   171ba:	eb 13                	jmp    171cf <_ZN6x86_644addr8VirtAddr7try_new17h0b368d9bd078f00fE+0x4f>
   171bc:	48 8b 44 24 10       	mov    rax,QWORD PTR [rsp+0x10]
   171c1:	48 89 44 24 20       	mov    QWORD PTR [rsp+0x20],rax
   171c6:	48 c7 44 24 18 00 00 	mov    QWORD PTR [rsp+0x18],0x0
   171cd:	00 00 
   171cf:	48 8b 44 24 18       	mov    rax,QWORD PTR [rsp+0x18]
   171d4:	48 8b 54 24 20       	mov    rdx,QWORD PTR [rsp+0x20]
   171d9:	48 83 c4 38          	add    rsp,0x38
   171dd:	c3                   	ret
   171de:	cc                   	int3
   171df:	cc                   	int3

00000000000171e0 <_ZN6x86_644addr8VirtAddr8p1_index17h40b4a4e94b636fdcE>:
   171e0:	50                   	push   rax
   171e1:	48 89 3c 24          	mov    QWORD PTR [rsp],rdi
   171e5:	48 c1 ef 0c          	shr    rdi,0xc
   171e9:	66 89 f8             	mov    ax,di
   171ec:	66 89 c7             	mov    di,ax
   171ef:	e8 dc e5 ff ff       	call   157d0 <_ZN6x86_6410structures6paging10page_table14PageTableIndex12new_truncate17h96c34cf7a3601c64E>
   171f4:	59                   	pop    rcx
   171f5:	c3                   	ret
   171f6:	cc                   	int3
   171f7:	cc                   	int3
   171f8:	cc                   	int3
   171f9:	cc                   	int3
   171fa:	cc                   	int3
   171fb:	cc                   	int3
   171fc:	cc                   	int3
   171fd:	cc                   	int3
   171fe:	cc                   	int3
   171ff:	cc                   	int3

0000000000017200 <_ZN75_$LT$x86_64..addr..VirtAddr$u20$as$u20$core..ops..arith..Add$LT$u64$GT$$GT$3add17h65410275577a1643E>:
   17200:	48 83 ec 18          	sub    rsp,0x18
   17204:	48 89 7c 24 08       	mov    QWORD PTR [rsp+0x8],rdi
   17209:	48 89 74 24 10       	mov    QWORD PTR [rsp+0x10],rsi
   1720e:	48 01 f7             	add    rdi,rsi
   17211:	48 89 3c 24          	mov    QWORD PTR [rsp],rdi
   17215:	0f 92 c0             	setb   al
   17218:	72 0e                	jb     17228 <_ZN75_$LT$x86_64..addr..VirtAddr$u20$as$u20$core..ops..arith..Add$LT$u64$GT$$GT$3add17h65410275577a1643E+0x28>
   1721a:	48 8b 3c 24          	mov    rdi,QWORD PTR [rsp]
   1721e:	e8 fd fe ff ff       	call   17120 <_ZN6x86_644addr8VirtAddr3new17h22d75717f908b84fE>
   17223:	48 83 c4 18          	add    rsp,0x18
   17227:	c3                   	ret
   17228:	48 8d 3d 59 79 02 00 	lea    rdi,[rip+0x27959]        # 3eb88 <memmove+0x1458>
   1722f:	48 8b 05 4a fe 02 00 	mov    rax,QWORD PTR [rip+0x2fe4a]        # 47080 <_DYNAMIC+0x1e8>
   17236:	ff d0                	call   rax
   17238:	cc                   	int3
   17239:	cc                   	int3
   1723a:	cc                   	int3
   1723b:	cc                   	int3
   1723c:	cc                   	int3
   1723d:	cc                   	int3
   1723e:	cc                   	int3
   1723f:	cc                   	int3

0000000000017240 <_ZN75_$LT$x86_64..addr..VirtAddr$u20$as$u20$core..ops..arith..Sub$LT$u64$GT$$GT$3sub17h8fae848db5ef3a48E>:
   17240:	48 83 ec 28          	sub    rsp,0x28
   17244:	48 89 3c 24          	mov    QWORD PTR [rsp],rdi
   17248:	48 89 74 24 08       	mov    QWORD PTR [rsp+0x8],rsi
   1724d:	e8 9e e0 ff ff       	call   152f0 <_ZN4core3num21_$LT$impl$u20$u64$GT$11checked_sub17h6cbe09176c54ccf7E>
   17252:	48 89 44 24 10       	mov    QWORD PTR [rsp+0x10],rax
   17257:	48 89 54 24 18       	mov    QWORD PTR [rsp+0x18],rdx
   1725c:	48 83 7c 24 10 00    	cmp    QWORD PTR [rsp+0x10],0x0
   17262:	75 10                	jne    17274 <_ZN75_$LT$x86_64..addr..VirtAddr$u20$as$u20$core..ops..arith..Sub$LT$u64$GT$$GT$3sub17h8fae848db5ef3a48E+0x34>
   17264:	48 8d 3d 35 79 02 00 	lea    rdi,[rip+0x27935]        # 3eba0 <memmove+0x1470>
   1726b:	48 8b 05 76 fd 02 00 	mov    rax,QWORD PTR [rip+0x2fd76]        # 46fe8 <_DYNAMIC+0x150>
   17272:	ff d0                	call   rax
   17274:	48 8b 7c 24 18       	mov    rdi,QWORD PTR [rsp+0x18]
   17279:	48 89 7c 24 20       	mov    QWORD PTR [rsp+0x20],rdi
   1727e:	e8 9d fe ff ff       	call   17120 <_ZN6x86_644addr8VirtAddr3new17h22d75717f908b84fE>
   17283:	48 83 c4 28          	add    rsp,0x28
   17287:	c3                   	ret
   17288:	cc                   	int3
   17289:	cc                   	int3
   1728a:	cc                   	int3
   1728b:	cc                   	int3
   1728c:	cc                   	int3
   1728d:	cc                   	int3
   1728e:	cc                   	int3
   1728f:	cc                   	int3

0000000000017290 <_ZN192_$LT$x86_64..structures..paging..mapper..mapped_page_table..MappedPageTable$LT$P$GT$$u20$as$u20$x86_64..structures..paging..mapper..Mapper$LT$x86_64..structures..paging..page..Size4KiB$GT$$GT$23map_to_with_table_flags17hf1a95aa3cf3c0784E>:
   17290:	48 83 ec 68          	sub    rsp,0x68
   17294:	48 89 f8             	mov    rax,rdi
   17297:	48 89 44 24 08       	mov    QWORD PTR [rsp+0x8],rax
   1729c:	4c 8b 54 24 70       	mov    r10,QWORD PTR [rsp+0x70]
   172a1:	48 89 54 24 18       	mov    QWORD PTR [rsp+0x18],rdx
   172a6:	48 8b 44 24 18       	mov    rax,QWORD PTR [rsp+0x18]
   172ab:	48 89 44 24 10       	mov    QWORD PTR [rsp+0x10],rax
   172b0:	48 89 4c 24 28       	mov    QWORD PTR [rsp+0x28],rcx
   172b5:	48 8b 44 24 28       	mov    rax,QWORD PTR [rsp+0x28]
   172ba:	48 89 44 24 20       	mov    QWORD PTR [rsp+0x20],rax
   172bf:	48 89 74 24 30       	mov    QWORD PTR [rsp+0x30],rsi
   172c4:	4c 89 44 24 38       	mov    QWORD PTR [rsp+0x38],r8
   172c9:	4c 89 4c 24 40       	mov    QWORD PTR [rsp+0x40],r9
   172ce:	48 8b 44 24 10       	mov    rax,QWORD PTR [rsp+0x10]
   172d3:	48 89 44 24 48       	mov    QWORD PTR [rsp+0x48],rax
   172d8:	48 8b 44 24 48       	mov    rax,QWORD PTR [rsp+0x48]
   172dd:	48 89 44 24 50       	mov    QWORD PTR [rsp+0x50],rax
   172e2:	48 8b 54 24 50       	mov    rdx,QWORD PTR [rsp+0x50]
   172e7:	48 8b 44 24 20       	mov    rax,QWORD PTR [rsp+0x20]
   172ec:	48 89 44 24 58       	mov    QWORD PTR [rsp+0x58],rax
   172f1:	48 8b 44 24 58       	mov    rax,QWORD PTR [rsp+0x58]
   172f6:	48 89 44 24 60       	mov    QWORD PTR [rsp+0x60],rax
   172fb:	48 8b 4c 24 60       	mov    rcx,QWORD PTR [rsp+0x60]
   17300:	48 89 e0             	mov    rax,rsp
   17303:	4c 89 10             	mov    QWORD PTR [rax],r10
   17306:	e8 15 00 00 00       	call   17320 <_ZN6x86_6410structures6paging6mapper17mapped_page_table24MappedPageTable$LT$P$GT$11map_to_4kib17h388641b225e73b64E>
   1730b:	48 8b 44 24 08       	mov    rax,QWORD PTR [rsp+0x8]
   17310:	48 83 c4 68          	add    rsp,0x68
   17314:	c3                   	ret
   17315:	cc                   	int3
   17316:	cc                   	int3
   17317:	cc                   	int3
   17318:	cc                   	int3
   17319:	cc                   	int3
   1731a:	cc                   	int3
   1731b:	cc                   	int3
   1731c:	cc                   	int3
   1731d:	cc                   	int3
   1731e:	cc                   	int3
   1731f:	cc                   	int3

0000000000017320 <_ZN6x86_6410structures6paging6mapper17mapped_page_table24MappedPageTable$LT$P$GT$11map_to_4kib17h388641b225e73b64E>:
   17320:	48 81 ec b8 01 00 00 	sub    rsp,0x1b8
   17327:	4c 89 4c 24 58       	mov    QWORD PTR [rsp+0x58],r9
   1732c:	4c 89 44 24 28       	mov    QWORD PTR [rsp+0x28],r8
   17331:	48 89 74 24 30       	mov    QWORD PTR [rsp+0x30],rsi
   17336:	48 89 7c 24 38       	mov    QWORD PTR [rsp+0x38],rdi
   1733b:	48 89 7c 24 40       	mov    QWORD PTR [rsp+0x40],rdi
   17340:	48 8b 84 24 c0 01 00 	mov    rax,QWORD PTR [rsp+0x1c0]
   17347:	00 
   17348:	48 89 44 24 60       	mov    QWORD PTR [rsp+0x60],rax
   1734d:	48 89 54 24 70       	mov    QWORD PTR [rsp+0x70],rdx
   17352:	48 8b 44 24 70       	mov    rax,QWORD PTR [rsp+0x70]
   17357:	48 89 44 24 68       	mov    QWORD PTR [rsp+0x68],rax
   1735c:	48 89 8c 24 80 00 00 	mov    QWORD PTR [rsp+0x80],rcx
   17363:	00 
   17364:	48 8b 84 24 80 00 00 	mov    rax,QWORD PTR [rsp+0x80]
   1736b:	00 
   1736c:	48 89 44 24 78       	mov    QWORD PTR [rsp+0x78],rax
   17371:	48 89 b4 24 00 01 00 	mov    QWORD PTR [rsp+0x100],rsi
   17378:	00 
   17379:	4c 89 84 24 08 01 00 	mov    QWORD PTR [rsp+0x108],r8
   17380:	00 
   17381:	4c 89 8c 24 10 01 00 	mov    QWORD PTR [rsp+0x110],r9
   17388:	00 
   17389:	48 89 b4 24 18 01 00 	mov    QWORD PTR [rsp+0x118],rsi
   17390:	00 
   17391:	48 89 f0             	mov    rax,rsi
   17394:	48 83 c0 08          	add    rax,0x8
   17398:	48 89 44 24 50       	mov    QWORD PTR [rsp+0x50],rax
   1739d:	48 8b 06             	mov    rax,QWORD PTR [rsi]
   173a0:	48 89 44 24 48       	mov    QWORD PTR [rsp+0x48],rax
   173a5:	48 8b 44 24 68       	mov    rax,QWORD PTR [rsp+0x68]
   173aa:	48 89 84 24 20 01 00 	mov    QWORD PTR [rsp+0x120],rax
   173b1:	00 
   173b2:	48 8b 84 24 20 01 00 	mov    rax,QWORD PTR [rsp+0x120]
   173b9:	00 
   173ba:	48 89 84 24 28 01 00 	mov    QWORD PTR [rsp+0x128],rax
   173c1:	00 
   173c2:	48 8b bc 24 28 01 00 	mov    rdi,QWORD PTR [rsp+0x128]
   173c9:	00 
   173ca:	48 8b 05 df fc 02 00 	mov    rax,QWORD PTR [rip+0x2fcdf]        # 470b0 <_DYNAMIC+0x218>
   173d1:	ff d0                	call   rax
   173d3:	48 8b 7c 24 48       	mov    rdi,QWORD PTR [rsp+0x48]
   173d8:	66 89 c6             	mov    si,ax
   173db:	48 8d 15 d6 77 02 00 	lea    rdx,[rip+0x277d6]        # 3ebb8 <memmove+0x1488>
   173e2:	e8 b9 e0 ff ff       	call   154a0 <_ZN158_$LT$x86_64..structures..paging..page_table..PageTable$u20$as$u20$core..ops..index..IndexMut$LT$x86_64..structures..paging..page_table..PageTableIndex$GT$$GT$9index_mut17he347da3023a7240dE>
   173e7:	48 8b 74 24 50       	mov    rsi,QWORD PTR [rsp+0x50]
   173ec:	48 8b 4c 24 58       	mov    rcx,QWORD PTR [rsp+0x58]
   173f1:	4c 8b 44 24 60       	mov    r8,QWORD PTR [rsp+0x60]
   173f6:	48 89 c2             	mov    rdx,rax
   173f9:	48 8d bc 24 98 00 00 	lea    rdi,[rsp+0x98]
   17400:	00 
   17401:	e8 7a 04 00 00       	call   17880 <_ZN6x86_6410structures6paging6mapper17mapped_page_table24PageTableWalker$LT$P$GT$17create_next_table17h7b941fecf90b965fE>
   17406:	48 8d bc 24 88 00 00 	lea    rdi,[rsp+0x88]
   1740d:	00 
   1740e:	48 8d b4 24 98 00 00 	lea    rsi,[rsp+0x98]
   17415:	00 
   17416:	e8 a5 08 00 00       	call   17cc0 <_ZN79_$LT$core..result..Result$LT$T$C$E$GT$$u20$as$u20$core..ops..try_trait..Try$GT$6branch17h663cb28e64ddf61cE>
   1741b:	8a 84 24 88 00 00 00 	mov    al,BYTE PTR [rsp+0x88]
   17422:	24 01                	and    al,0x1
   17424:	0f b6 c0             	movzx  eax,al
   17427:	48 83 f8 00          	cmp    rax,0x0
   1742b:	0f 85 b0 00 00 00    	jne    174e1 <_ZN6x86_6410structures6paging6mapper17mapped_page_table24MappedPageTable$LT$P$GT$11map_to_4kib17h388641b225e73b64E+0x1c1>
   17431:	48 8b 44 24 30       	mov    rax,QWORD PTR [rsp+0x30]
   17436:	48 8b 8c 24 90 00 00 	mov    rcx,QWORD PTR [rsp+0x90]
   1743d:	00 
   1743e:	48 89 4c 24 18       	mov    QWORD PTR [rsp+0x18],rcx
   17443:	48 89 8c 24 30 01 00 	mov    QWORD PTR [rsp+0x130],rcx
   1744a:	00 
   1744b:	48 83 c0 08          	add    rax,0x8
   1744f:	48 89 44 24 20       	mov    QWORD PTR [rsp+0x20],rax
   17454:	48 8b 44 24 68       	mov    rax,QWORD PTR [rsp+0x68]
   17459:	48 89 84 24 38 01 00 	mov    QWORD PTR [rsp+0x138],rax
   17460:	00 
   17461:	48 8b 84 24 38 01 00 	mov    rax,QWORD PTR [rsp+0x138]
   17468:	00 
   17469:	48 89 84 24 40 01 00 	mov    QWORD PTR [rsp+0x140],rax
   17470:	00 
   17471:	48 8b bc 24 40 01 00 	mov    rdi,QWORD PTR [rsp+0x140]
   17478:	00 
   17479:	48 8b 05 38 fc 02 00 	mov    rax,QWORD PTR [rip+0x2fc38]        # 470b8 <_DYNAMIC+0x220>
   17480:	ff d0                	call   rax
   17482:	48 8b 7c 24 18       	mov    rdi,QWORD PTR [rsp+0x18]
   17487:	66 89 c6             	mov    si,ax
   1748a:	48 8d 15 3f 77 02 00 	lea    rdx,[rip+0x2773f]        # 3ebd0 <memmove+0x14a0>
   17491:	e8 0a e0 ff ff       	call   154a0 <_ZN158_$LT$x86_64..structures..paging..page_table..PageTable$u20$as$u20$core..ops..index..IndexMut$LT$x86_64..structures..paging..page_table..PageTableIndex$GT$$GT$9index_mut17he347da3023a7240dE>
   17496:	48 8b 74 24 20       	mov    rsi,QWORD PTR [rsp+0x20]
   1749b:	48 8b 4c 24 58       	mov    rcx,QWORD PTR [rsp+0x58]
   174a0:	4c 8b 44 24 60       	mov    r8,QWORD PTR [rsp+0x60]
   174a5:	48 89 c2             	mov    rdx,rax
   174a8:	48 8d bc 24 b8 00 00 	lea    rdi,[rsp+0xb8]
   174af:	00 
   174b0:	e8 cb 03 00 00       	call   17880 <_ZN6x86_6410structures6paging6mapper17mapped_page_table24PageTableWalker$LT$P$GT$17create_next_table17h7b941fecf90b965fE>
   174b5:	48 8d bc 24 a8 00 00 	lea    rdi,[rsp+0xa8]
   174bc:	00 
   174bd:	48 8d b4 24 b8 00 00 	lea    rsi,[rsp+0xb8]
   174c4:	00 
   174c5:	e8 f6 07 00 00       	call   17cc0 <_ZN79_$LT$core..result..Result$LT$T$C$E$GT$$u20$as$u20$core..ops..try_trait..Try$GT$6branch17h663cb28e64ddf61cE>
   174ca:	8a 84 24 a8 00 00 00 	mov    al,BYTE PTR [rsp+0xa8]
   174d1:	24 01                	and    al,0x1
   174d3:	0f b6 c0             	movzx  eax,al
   174d6:	48 83 f8 00          	cmp    rax,0x0
   174da:	74 34                	je     17510 <_ZN6x86_6410structures6paging6mapper17mapped_page_table24MappedPageTable$LT$P$GT$11map_to_4kib17h388641b225e73b64E+0x1f0>
   174dc:	e9 df 00 00 00       	jmp    175c0 <_ZN6x86_6410structures6paging6mapper17mapped_page_table24MappedPageTable$LT$P$GT$11map_to_4kib17h388641b225e73b64E+0x2a0>
   174e1:	48 8b 7c 24 38       	mov    rdi,QWORD PTR [rsp+0x38]
   174e6:	8a 84 24 89 00 00 00 	mov    al,BYTE PTR [rsp+0x89]
   174ed:	88 c1                	mov    cl,al
   174ef:	80 e1 01             	and    cl,0x1
   174f2:	88 8c 24 b7 01 00 00 	mov    BYTE PTR [rsp+0x1b7],cl
   174f9:	0f b6 f0             	movzx  esi,al
   174fc:	83 e6 01             	and    esi,0x1
   174ff:	48 8d 15 5a 77 02 00 	lea    rdx,[rip+0x2775a]        # 3ec60 <memmove+0x1530>
   17506:	e8 a5 05 00 00       	call   17ab0 <_ZN153_$LT$core..result..Result$LT$T$C$F$GT$$u20$as$u20$core..ops..try_trait..FromResidual$LT$core..result..Result$LT$core..convert..Infallible$C$E$GT$$GT$$GT$13from_residual17h166171f1ab55fb0eE>
   1750b:	e9 77 02 00 00       	jmp    17787 <_ZN6x86_6410structures6paging6mapper17mapped_page_table24MappedPageTable$LT$P$GT$11map_to_4kib17h388641b225e73b64E+0x467>
   17510:	48 8b 44 24 30       	mov    rax,QWORD PTR [rsp+0x30]
   17515:	48 8b 8c 24 b0 00 00 	mov    rcx,QWORD PTR [rsp+0xb0]
   1751c:	00 
   1751d:	48 89 4c 24 08       	mov    QWORD PTR [rsp+0x8],rcx
   17522:	48 89 8c 24 48 01 00 	mov    QWORD PTR [rsp+0x148],rcx
   17529:	00 
   1752a:	48 83 c0 08          	add    rax,0x8
   1752e:	48 89 44 24 10       	mov    QWORD PTR [rsp+0x10],rax
   17533:	48 8b 44 24 68       	mov    rax,QWORD PTR [rsp+0x68]
   17538:	48 89 84 24 50 01 00 	mov    QWORD PTR [rsp+0x150],rax
   1753f:	00 
   17540:	48 8b 84 24 50 01 00 	mov    rax,QWORD PTR [rsp+0x150]
   17547:	00 
   17548:	48 89 84 24 58 01 00 	mov    QWORD PTR [rsp+0x158],rax
   1754f:	00 
   17550:	48 8b bc 24 58 01 00 	mov    rdi,QWORD PTR [rsp+0x158]
   17557:	00 
   17558:	48 8b 05 61 fb 02 00 	mov    rax,QWORD PTR [rip+0x2fb61]        # 470c0 <_DYNAMIC+0x228>
   1755f:	ff d0                	call   rax
   17561:	48 8b 7c 24 08       	mov    rdi,QWORD PTR [rsp+0x8]
   17566:	66 89 c6             	mov    si,ax
   17569:	48 8d 15 78 76 02 00 	lea    rdx,[rip+0x27678]        # 3ebe8 <memmove+0x14b8>
   17570:	e8 2b df ff ff       	call   154a0 <_ZN158_$LT$x86_64..structures..paging..page_table..PageTable$u20$as$u20$core..ops..index..IndexMut$LT$x86_64..structures..paging..page_table..PageTableIndex$GT$$GT$9index_mut17he347da3023a7240dE>
   17575:	48 8b 74 24 10       	mov    rsi,QWORD PTR [rsp+0x10]
   1757a:	48 8b 4c 24 58       	mov    rcx,QWORD PTR [rsp+0x58]
   1757f:	4c 8b 44 24 60       	mov    r8,QWORD PTR [rsp+0x60]
   17584:	48 89 c2             	mov    rdx,rax
   17587:	48 8d bc 24 d8 00 00 	lea    rdi,[rsp+0xd8]
   1758e:	00 
   1758f:	e8 ec 02 00 00       	call   17880 <_ZN6x86_6410structures6paging6mapper17mapped_page_table24PageTableWalker$LT$P$GT$17create_next_table17h7b941fecf90b965fE>
   17594:	48 8d bc 24 c8 00 00 	lea    rdi,[rsp+0xc8]
   1759b:	00 
   1759c:	48 8d b4 24 d8 00 00 	lea    rsi,[rsp+0xd8]
   175a3:	00 
   175a4:	e8 17 07 00 00       	call   17cc0 <_ZN79_$LT$core..result..Result$LT$T$C$E$GT$$u20$as$u20$core..ops..try_trait..Try$GT$6branch17h663cb28e64ddf61cE>
   175a9:	8a 84 24 c8 00 00 00 	mov    al,BYTE PTR [rsp+0xc8]
   175b0:	24 01                	and    al,0x1
   175b2:	0f b6 c0             	movzx  eax,al
   175b5:	48 83 f8 00          	cmp    rax,0x0
   175b9:	74 34                	je     175ef <_ZN6x86_6410structures6paging6mapper17mapped_page_table24MappedPageTable$LT$P$GT$11map_to_4kib17h388641b225e73b64E+0x2cf>
   175bb:	e9 8e 00 00 00       	jmp    1764e <_ZN6x86_6410structures6paging6mapper17mapped_page_table24MappedPageTable$LT$P$GT$11map_to_4kib17h388641b225e73b64E+0x32e>
   175c0:	48 8b 7c 24 38       	mov    rdi,QWORD PTR [rsp+0x38]
   175c5:	8a 84 24 a9 00 00 00 	mov    al,BYTE PTR [rsp+0xa9]
   175cc:	88 c1                	mov    cl,al
   175ce:	80 e1 01             	and    cl,0x1
   175d1:	88 8c 24 b6 01 00 00 	mov    BYTE PTR [rsp+0x1b6],cl
   175d8:	0f b6 f0             	movzx  esi,al
   175db:	83 e6 01             	and    esi,0x1
   175de:	48 8d 15 63 76 02 00 	lea    rdx,[rip+0x27663]        # 3ec48 <memmove+0x1518>
   175e5:	e8 c6 04 00 00       	call   17ab0 <_ZN153_$LT$core..result..Result$LT$T$C$F$GT$$u20$as$u20$core..ops..try_trait..FromResidual$LT$core..result..Result$LT$core..convert..Infallible$C$E$GT$$GT$$GT$13from_residual17h166171f1ab55fb0eE>
   175ea:	e9 98 01 00 00       	jmp    17787 <_ZN6x86_6410structures6paging6mapper17mapped_page_table24MappedPageTable$LT$P$GT$11map_to_4kib17h388641b225e73b64E+0x467>
   175ef:	48 8b 84 24 d0 00 00 	mov    rax,QWORD PTR [rsp+0xd0]
   175f6:	00 
   175f7:	48 89 04 24          	mov    QWORD PTR [rsp],rax
   175fb:	48 89 84 24 60 01 00 	mov    QWORD PTR [rsp+0x160],rax
   17602:	00 
   17603:	48 8b 44 24 68       	mov    rax,QWORD PTR [rsp+0x68]
   17608:	48 89 84 24 68 01 00 	mov    QWORD PTR [rsp+0x168],rax
   1760f:	00 
   17610:	48 8b 84 24 68 01 00 	mov    rax,QWORD PTR [rsp+0x168]
   17617:	00 
   17618:	48 89 84 24 70 01 00 	mov    QWORD PTR [rsp+0x170],rax
   1761f:	00 
   17620:	48 8b bc 24 70 01 00 	mov    rdi,QWORD PTR [rsp+0x170]
   17627:	00 
   17628:	e8 93 d7 ff ff       	call   14dc0 <_ZN6x86_6410structures6paging4page4Page8p1_index17hcadf512f70c67d22E>
   1762d:	48 8b 3c 24          	mov    rdi,QWORD PTR [rsp]
   17631:	66 89 c6             	mov    si,ax
   17634:	48 8d 15 c5 75 02 00 	lea    rdx,[rip+0x275c5]        # 3ec00 <memmove+0x14d0>
   1763b:	e8 00 de ff ff       	call   15440 <_ZN155_$LT$x86_64..structures..paging..page_table..PageTable$u20$as$u20$core..ops..index..Index$LT$x86_64..structures..paging..page_table..PageTableIndex$GT$$GT$5index17hf7ff090b92d15456E>
   17640:	48 89 c7             	mov    rdi,rax
   17643:	e8 88 e0 ff ff       	call   156d0 <_ZN6x86_6410structures6paging10page_table14PageTableEntry9is_unused17h00c7c9b4f677498dE>
   17648:	a8 01                	test   al,0x1
   1764a:	75 6b                	jne    176b7 <_ZN6x86_6410structures6paging6mapper17mapped_page_table24MappedPageTable$LT$P$GT$11map_to_4kib17h388641b225e73b64E+0x397>
   1764c:	eb 2f                	jmp    1767d <_ZN6x86_6410structures6paging6mapper17mapped_page_table24MappedPageTable$LT$P$GT$11map_to_4kib17h388641b225e73b64E+0x35d>
   1764e:	48 8b 7c 24 38       	mov    rdi,QWORD PTR [rsp+0x38]
   17653:	8a 84 24 c9 00 00 00 	mov    al,BYTE PTR [rsp+0xc9]
   1765a:	88 c1                	mov    cl,al
   1765c:	80 e1 01             	and    cl,0x1
   1765f:	88 8c 24 b5 01 00 00 	mov    BYTE PTR [rsp+0x1b5],cl
   17666:	0f b6 f0             	movzx  esi,al
   17669:	83 e6 01             	and    esi,0x1
   1766c:	48 8d 15 bd 75 02 00 	lea    rdx,[rip+0x275bd]        # 3ec30 <memmove+0x1500>
   17673:	e8 38 04 00 00       	call   17ab0 <_ZN153_$LT$core..result..Result$LT$T$C$F$GT$$u20$as$u20$core..ops..try_trait..FromResidual$LT$core..result..Result$LT$core..convert..Infallible$C$E$GT$$GT$$GT$13from_residual17h166171f1ab55fb0eE>
   17678:	e9 0a 01 00 00       	jmp    17787 <_ZN6x86_6410structures6paging6mapper17mapped_page_table24MappedPageTable$LT$P$GT$11map_to_4kib17h388641b225e73b64E+0x467>
   1767d:	48 8b 44 24 38       	mov    rax,QWORD PTR [rsp+0x38]
   17682:	48 8b 4c 24 78       	mov    rcx,QWORD PTR [rsp+0x78]
   17687:	48 89 8c 24 f0 00 00 	mov    QWORD PTR [rsp+0xf0],rcx
   1768e:	00 
   1768f:	48 c7 84 24 e8 00 00 	mov    QWORD PTR [rsp+0xe8],0x2
   17696:	00 02 00 00 00 
   1769b:	48 8b 8c 24 e8 00 00 	mov    rcx,QWORD PTR [rsp+0xe8]
   176a2:	00 
   176a3:	48 89 08             	mov    QWORD PTR [rax],rcx
   176a6:	48 8b 8c 24 f0 00 00 	mov    rcx,QWORD PTR [rsp+0xf0]
   176ad:	00 
   176ae:	48 89 48 08          	mov    QWORD PTR [rax+0x8],rcx
   176b2:	e9 d0 00 00 00       	jmp    17787 <_ZN6x86_6410structures6paging6mapper17mapped_page_table24MappedPageTable$LT$P$GT$11map_to_4kib17h388641b225e73b64E+0x467>
   176b7:	48 8b 44 24 68       	mov    rax,QWORD PTR [rsp+0x68]
   176bc:	48 89 84 24 78 01 00 	mov    QWORD PTR [rsp+0x178],rax
   176c3:	00 
   176c4:	48 8b 84 24 78 01 00 	mov    rax,QWORD PTR [rsp+0x178]
   176cb:	00 
   176cc:	48 89 84 24 80 01 00 	mov    QWORD PTR [rsp+0x180],rax
   176d3:	00 
   176d4:	48 8b bc 24 80 01 00 	mov    rdi,QWORD PTR [rsp+0x180]
   176db:	00 
   176dc:	e8 df d6 ff ff       	call   14dc0 <_ZN6x86_6410structures6paging4page4Page8p1_index17hcadf512f70c67d22E>
   176e1:	48 8b 3c 24          	mov    rdi,QWORD PTR [rsp]
   176e5:	66 89 c6             	mov    si,ax
   176e8:	48 8d 15 29 75 02 00 	lea    rdx,[rip+0x27529]        # 3ec18 <memmove+0x14e8>
   176ef:	e8 ac dd ff ff       	call   154a0 <_ZN158_$LT$x86_64..structures..paging..page_table..PageTable$u20$as$u20$core..ops..index..IndexMut$LT$x86_64..structures..paging..page_table..PageTableIndex$GT$$GT$9index_mut17he347da3023a7240dE>
   176f4:	48 8b 54 24 28       	mov    rdx,QWORD PTR [rsp+0x28]
   176f9:	48 89 c7             	mov    rdi,rax
   176fc:	48 8b 44 24 78       	mov    rax,QWORD PTR [rsp+0x78]
   17701:	48 89 84 24 88 01 00 	mov    QWORD PTR [rsp+0x188],rax
   17708:	00 
   17709:	48 8b 84 24 88 01 00 	mov    rax,QWORD PTR [rsp+0x188]
   17710:	00 
   17711:	48 89 84 24 90 01 00 	mov    QWORD PTR [rsp+0x190],rax
   17718:	00 
   17719:	48 8b b4 24 90 01 00 	mov    rsi,QWORD PTR [rsp+0x190]
   17720:	00 
   17721:	e8 1a e0 ff ff       	call   15740 <_ZN6x86_6410structures6paging10page_table14PageTableEntry9set_frame17ha500d45386c0bda2E>
   17726:	48 8b 44 24 68       	mov    rax,QWORD PTR [rsp+0x68]
   1772b:	48 89 84 24 98 01 00 	mov    QWORD PTR [rsp+0x198],rax
   17732:	00 
   17733:	48 8b 84 24 98 01 00 	mov    rax,QWORD PTR [rsp+0x198]
   1773a:	00 
   1773b:	48 89 84 24 a0 01 00 	mov    QWORD PTR [rsp+0x1a0],rax
   17742:	00 
   17743:	48 8b bc 24 a0 01 00 	mov    rdi,QWORD PTR [rsp+0x1a0]
   1774a:	00 
   1774b:	48 8b 05 76 f9 02 00 	mov    rax,QWORD PTR [rip+0x2f976]        # 470c8 <_DYNAMIC+0x230>
   17752:	ff d0                	call   rax
   17754:	48 89 c1             	mov    rcx,rax
   17757:	48 8b 44 24 38       	mov    rax,QWORD PTR [rsp+0x38]
   1775c:	48 89 8c 24 a8 01 00 	mov    QWORD PTR [rsp+0x1a8],rcx
   17763:	00 
   17764:	48 8b 8c 24 a8 01 00 	mov    rcx,QWORD PTR [rsp+0x1a8]
   1776b:	00 
   1776c:	48 89 8c 24 f8 00 00 	mov    QWORD PTR [rsp+0xf8],rcx
   17773:	00 
   17774:	48 8b 8c 24 f8 00 00 	mov    rcx,QWORD PTR [rsp+0xf8]
   1777b:	00 
   1777c:	48 89 48 08          	mov    QWORD PTR [rax+0x8],rcx
   17780:	48 c7 00 03 00 00 00 	mov    QWORD PTR [rax],0x3
   17787:	48 8b 44 24 40       	mov    rax,QWORD PTR [rsp+0x40]
   1778c:	48 81 c4 b8 01 00 00 	add    rsp,0x1b8
   17793:	c3                   	ret
   17794:	cc                   	int3
   17795:	cc                   	int3
   17796:	cc                   	int3
   17797:	cc                   	int3
   17798:	cc                   	int3
   17799:	cc                   	int3
   1779a:	cc                   	int3
   1779b:	cc                   	int3
   1779c:	cc                   	int3
   1779d:	cc                   	int3
   1779e:	cc                   	int3
   1779f:	cc                   	int3

00000000000177a0 <_ZN6x86_6410structures6paging6mapper17mapped_page_table24PageTableWalker$LT$P$GT$14next_table_mut17h017a9c2ee0823372E>:
   177a0:	48 81 ec 88 00 00 00 	sub    rsp,0x88
   177a7:	48 89 54 24 08       	mov    QWORD PTR [rsp+0x8],rdx
   177ac:	48 89 f0             	mov    rax,rsi
   177af:	48 8b 74 24 08       	mov    rsi,QWORD PTR [rsp+0x8]
   177b4:	48 89 44 24 10       	mov    QWORD PTR [rsp+0x10],rax
   177b9:	48 89 7c 24 18       	mov    QWORD PTR [rsp+0x18],rdi
   177be:	48 89 7c 24 20       	mov    QWORD PTR [rsp+0x20],rdi
   177c3:	48 89 44 24 50       	mov    QWORD PTR [rsp+0x50],rax
   177c8:	48 89 74 24 58       	mov    QWORD PTR [rsp+0x58],rsi
   177cd:	48 8d 7c 24 38       	lea    rdi,[rsp+0x38]
   177d2:	e8 89 dd ff ff       	call   15560 <_ZN6x86_6410structures6paging10page_table14PageTableEntry5frame17h2f5cb265a109157aE>
   177d7:	48 8d 7c 24 28       	lea    rdi,[rsp+0x28]
   177dc:	48 8d 74 24 38       	lea    rsi,[rsp+0x38]
   177e1:	e8 ea 05 00 00       	call   17dd0 <_ZN79_$LT$core..result..Result$LT$T$C$E$GT$$u20$as$u20$core..ops..try_trait..Try$GT$6branch17hccf89c99a2d8a73dE>
   177e6:	8a 44 24 28          	mov    al,BYTE PTR [rsp+0x28]
   177ea:	24 01                	and    al,0x1
   177ec:	0f b6 c0             	movzx  eax,al
   177ef:	48 83 f8 00          	cmp    rax,0x0
   177f3:	75 4c                	jne    17841 <_ZN6x86_6410structures6paging6mapper17mapped_page_table24PageTableWalker$LT$P$GT$14next_table_mut17h017a9c2ee0823372E+0xa1>
   177f5:	48 8b 7c 24 10       	mov    rdi,QWORD PTR [rsp+0x10]
   177fa:	48 8b 44 24 30       	mov    rax,QWORD PTR [rsp+0x30]
   177ff:	48 89 44 24 48       	mov    QWORD PTR [rsp+0x48],rax
   17804:	48 8b 44 24 48       	mov    rax,QWORD PTR [rsp+0x48]
   17809:	48 89 44 24 60       	mov    QWORD PTR [rsp+0x60],rax
   1780e:	48 8b 44 24 60       	mov    rax,QWORD PTR [rsp+0x60]
   17813:	48 89 44 24 68       	mov    QWORD PTR [rsp+0x68],rax
   17818:	48 8b 74 24 68       	mov    rsi,QWORD PTR [rsp+0x68]
   1781d:	48 8b 05 ac f8 02 00 	mov    rax,QWORD PTR [rip+0x2f8ac]        # 470d0 <_DYNAMIC+0x238>
   17824:	ff d0                	call   rax
   17826:	48 89 c1             	mov    rcx,rax
   17829:	48 8b 44 24 18       	mov    rax,QWORD PTR [rsp+0x18]
   1782e:	48 89 4c 24 70       	mov    QWORD PTR [rsp+0x70],rcx
   17833:	48 89 4c 24 78       	mov    QWORD PTR [rsp+0x78],rcx
   17838:	48 89 48 08          	mov    QWORD PTR [rax+0x8],rcx
   1783c:	c6 00 00             	mov    BYTE PTR [rax],0x0
   1783f:	eb 27                	jmp    17868 <_ZN6x86_6410structures6paging6mapper17mapped_page_table24PageTableWalker$LT$P$GT$14next_table_mut17h017a9c2ee0823372E+0xc8>
   17841:	48 8b 7c 24 18       	mov    rdi,QWORD PTR [rsp+0x18]
   17846:	8a 44 24 29          	mov    al,BYTE PTR [rsp+0x29]
   1784a:	88 c1                	mov    cl,al
   1784c:	80 e1 01             	and    cl,0x1
   1784f:	88 8c 24 87 00 00 00 	mov    BYTE PTR [rsp+0x87],cl
   17856:	0f b6 f0             	movzx  esi,al
   17859:	83 e6 01             	and    esi,0x1
   1785c:	48 8d 15 15 74 02 00 	lea    rdx,[rip+0x27415]        # 3ec78 <memmove+0x1548>
   17863:	e8 e8 02 00 00       	call   17b50 <_ZN153_$LT$core..result..Result$LT$T$C$F$GT$$u20$as$u20$core..ops..try_trait..FromResidual$LT$core..result..Result$LT$core..convert..Infallible$C$E$GT$$GT$$GT$13from_residual17hcf74fbfc36d84d4fE>
   17868:	48 8b 44 24 20       	mov    rax,QWORD PTR [rsp+0x20]
   1786d:	48 81 c4 88 00 00 00 	add    rsp,0x88
   17874:	c3                   	ret
   17875:	cc                   	int3
   17876:	cc                   	int3
   17877:	cc                   	int3
   17878:	cc                   	int3
   17879:	cc                   	int3
   1787a:	cc                   	int3
   1787b:	cc                   	int3
   1787c:	cc                   	int3
   1787d:	cc                   	int3
   1787e:	cc                   	int3
   1787f:	cc                   	int3

0000000000017880 <_ZN6x86_6410structures6paging6mapper17mapped_page_table24PageTableWalker$LT$P$GT$17create_next_table17h7b941fecf90b965fE>:
   17880:	48 81 ec b8 00 00 00 	sub    rsp,0xb8
   17887:	4c 89 44 24 10       	mov    QWORD PTR [rsp+0x10],r8
   1788c:	48 89 54 24 20       	mov    QWORD PTR [rsp+0x20],rdx
   17891:	48 89 74 24 18       	mov    QWORD PTR [rsp+0x18],rsi
   17896:	48 89 f8             	mov    rax,rdi
   17899:	48 8b 7c 24 20       	mov    rdi,QWORD PTR [rsp+0x20]
   1789e:	48 89 44 24 28       	mov    QWORD PTR [rsp+0x28],rax
   178a3:	48 89 44 24 30       	mov    QWORD PTR [rsp+0x30],rax
   178a8:	48 89 4c 24 38       	mov    QWORD PTR [rsp+0x38],rcx
   178ad:	48 89 b4 24 88 00 00 	mov    QWORD PTR [rsp+0x88],rsi
   178b4:	00 
   178b5:	48 89 bc 24 90 00 00 	mov    QWORD PTR [rsp+0x90],rdi
   178bc:	00 
   178bd:	4c 89 84 24 98 00 00 	mov    QWORD PTR [rsp+0x98],r8
   178c4:	00 
   178c5:	e8 06 de ff ff       	call   156d0 <_ZN6x86_6410structures6paging10page_table14PageTableEntry9is_unused17h00c7c9b4f677498dE>
   178ca:	a8 01                	test   al,0x1
   178cc:	75 10                	jne    178de <_ZN6x86_6410structures6paging6mapper17mapped_page_table24PageTableWalker$LT$P$GT$17create_next_table17h7b941fecf90b965fE+0x5e>
   178ce:	48 8d 7c 24 38       	lea    rdi,[rsp+0x38]
   178d3:	e8 98 f1 ff ff       	call   16a70 <_ZN6x86_6410structures6paging10page_table1_72_$LT$impl$u20$x86_64..structures..paging..page_table..PageTableFlags$GT$8is_empty17h75dd9c42d6b13d2aE>
   178d8:	a8 01                	test   al,0x1
   178da:	75 46                	jne    17922 <_ZN6x86_6410structures6paging6mapper17mapped_page_table24PageTableWalker$LT$P$GT$17create_next_table17h7b941fecf90b965fE+0xa2>
   178dc:	eb 20                	jmp    178fe <_ZN6x86_6410structures6paging6mapper17mapped_page_table24PageTableWalker$LT$P$GT$17create_next_table17h7b941fecf90b965fE+0x7e>
   178de:	48 8b 74 24 10       	mov    rsi,QWORD PTR [rsp+0x10]
   178e3:	48 8b 05 ee f7 02 00 	mov    rax,QWORD PTR [rip+0x2f7ee]        # 470d8 <_DYNAMIC+0x240>
   178ea:	48 8d 7c 24 48       	lea    rdi,[rsp+0x48]
   178ef:	ff d0                	call   rax
   178f1:	48 83 7c 24 48 01    	cmp    QWORD PTR [rsp+0x48],0x1
   178f7:	74 7b                	je     17974 <_ZN6x86_6410structures6paging6mapper17mapped_page_table24PageTableWalker$LT$P$GT$17create_next_table17h7b941fecf90b965fE+0xf4>
   178f9:	e9 bb 00 00 00       	jmp    179b9 <_ZN6x86_6410structures6paging6mapper17mapped_page_table24PageTableWalker$LT$P$GT$17create_next_table17h7b941fecf90b965fE+0x139>
   178fe:	48 8b 7c 24 20       	mov    rdi,QWORD PTR [rsp+0x20]
   17903:	e8 48 dc ff ff       	call   15550 <_ZN6x86_6410structures6paging10page_table14PageTableEntry5flags17h956cace730fa3dcdE>
   17908:	48 89 44 24 68       	mov    QWORD PTR [rsp+0x68],rax
   1790d:	48 8b 74 24 38       	mov    rsi,QWORD PTR [rsp+0x38]
   17912:	48 8d 7c 24 68       	lea    rdi,[rsp+0x68]
   17917:	e8 34 f1 ff ff       	call   16a50 <_ZN6x86_6410structures6paging10page_table1_72_$LT$impl$u20$x86_64..structures..paging..page_table..PageTableFlags$GT$8contains17h977f7d5c8c07421fE>
   1791c:	a8 01                	test   al,0x1
   1791e:	75 02                	jne    17922 <_ZN6x86_6410structures6paging6mapper17mapped_page_table24PageTableWalker$LT$P$GT$17create_next_table17h7b941fecf90b965fE+0xa2>
   17920:	eb 07                	jmp    17929 <_ZN6x86_6410structures6paging6mapper17mapped_page_table24PageTableWalker$LT$P$GT$17create_next_table17h7b941fecf90b965fE+0xa9>
   17922:	c6 44 24 47 00       	mov    BYTE PTR [rsp+0x47],0x0
   17927:	eb 26                	jmp    1794f <_ZN6x86_6410structures6paging6mapper17mapped_page_table24PageTableWalker$LT$P$GT$17create_next_table17h7b941fecf90b965fE+0xcf>
   17929:	48 8b 7c 24 20       	mov    rdi,QWORD PTR [rsp+0x20]
   1792e:	e8 1d dc ff ff       	call   15550 <_ZN6x86_6410structures6paging10page_table14PageTableEntry5flags17h956cace730fa3dcdE>
   17933:	48 89 c7             	mov    rdi,rax
   17936:	48 8b 74 24 38       	mov    rsi,QWORD PTR [rsp+0x38]
   1793b:	e8 b0 de ff ff       	call   157f0 <_ZN6x86_6410structures6paging10page_table1_106_$LT$impl$u20$core..ops..bit..BitOr$u20$for$u20$x86_64..structures..paging..page_table..PageTableFlags$GT$5bitor17h3c4a53d6be740898E>
   17940:	48 8b 7c 24 20       	mov    rdi,QWORD PTR [rsp+0x20]
   17945:	48 89 c6             	mov    rsi,rax
   17948:	e8 a3 dd ff ff       	call   156f0 <_ZN6x86_6410structures6paging10page_table14PageTableEntry9set_flags17h152be69506f5a26aE>
   1794d:	eb d3                	jmp    17922 <_ZN6x86_6410structures6paging6mapper17mapped_page_table24PageTableWalker$LT$P$GT$17create_next_table17h7b941fecf90b965fE+0xa2>
   1794f:	48 8b 54 24 20       	mov    rdx,QWORD PTR [rsp+0x20]
   17954:	48 8b 74 24 18       	mov    rsi,QWORD PTR [rsp+0x18]
   17959:	48 8d 7c 24 70       	lea    rdi,[rsp+0x70]
   1795e:	e8 3d fe ff ff       	call   177a0 <_ZN6x86_6410structures6paging6mapper17mapped_page_table24PageTableWalker$LT$P$GT$14next_table_mut17h017a9c2ee0823372E>
   17963:	8a 44 24 70          	mov    al,BYTE PTR [rsp+0x70]
   17967:	24 01                	and    al,0x1
   17969:	0f b6 c0             	movzx  eax,al
   1796c:	48 83 f8 00          	cmp    rax,0x0
   17970:	74 60                	je     179d2 <_ZN6x86_6410structures6paging6mapper17mapped_page_table24PageTableWalker$LT$P$GT$17create_next_table17h7b941fecf90b965fE+0x152>
   17972:	eb 79                	jmp    179ed <_ZN6x86_6410structures6paging6mapper17mapped_page_table24PageTableWalker$LT$P$GT$17create_next_table17h7b941fecf90b965fE+0x16d>
   17974:	48 8b 7c 24 20       	mov    rdi,QWORD PTR [rsp+0x20]
   17979:	48 8b 44 24 50       	mov    rax,QWORD PTR [rsp+0x50]
   1797e:	48 89 44 24 58       	mov    QWORD PTR [rsp+0x58],rax
   17983:	48 8b 44 24 58       	mov    rax,QWORD PTR [rsp+0x58]
   17988:	48 89 84 24 a0 00 00 	mov    QWORD PTR [rsp+0xa0],rax
   1798f:	00 
   17990:	48 8b 84 24 a0 00 00 	mov    rax,QWORD PTR [rsp+0xa0]
   17997:	00 
   17998:	48 89 84 24 a8 00 00 	mov    QWORD PTR [rsp+0xa8],rax
   1799f:	00 
   179a0:	48 8b b4 24 a8 00 00 	mov    rsi,QWORD PTR [rsp+0xa8]
   179a7:	00 
   179a8:	48 8b 54 24 38       	mov    rdx,QWORD PTR [rsp+0x38]
   179ad:	e8 8e dd ff ff       	call   15740 <_ZN6x86_6410structures6paging10page_table14PageTableEntry9set_frame17ha500d45386c0bda2E>
   179b2:	c6 44 24 47 01       	mov    BYTE PTR [rsp+0x47],0x1
   179b7:	eb 96                	jmp    1794f <_ZN6x86_6410structures6paging6mapper17mapped_page_table24PageTableWalker$LT$P$GT$17create_next_table17h7b941fecf90b965fE+0xcf>
   179b9:	48 8b 44 24 28       	mov    rax,QWORD PTR [rsp+0x28]
   179be:	c6 44 24 67 01       	mov    BYTE PTR [rsp+0x67],0x1
   179c3:	8a 4c 24 67          	mov    cl,BYTE PTR [rsp+0x67]
   179c7:	80 e1 01             	and    cl,0x1
   179ca:	88 48 01             	mov    BYTE PTR [rax+0x1],cl
   179cd:	c6 00 01             	mov    BYTE PTR [rax],0x1
   179d0:	eb 4b                	jmp    17a1d <_ZN6x86_6410structures6paging6mapper17mapped_page_table24PageTableWalker$LT$P$GT$17create_next_table17h7b941fecf90b965fE+0x19d>
   179d2:	48 8b 44 24 78       	mov    rax,QWORD PTR [rsp+0x78]
   179d7:	48 89 44 24 08       	mov    QWORD PTR [rsp+0x8],rax
   179dc:	48 89 84 24 b0 00 00 	mov    QWORD PTR [rsp+0xb0],rax
   179e3:	00 
   179e4:	f6 44 24 47 01       	test   BYTE PTR [rsp+0x47],0x1
   179e9:	75 26                	jne    17a11 <_ZN6x86_6410structures6paging6mapper17mapped_page_table24PageTableWalker$LT$P$GT$17create_next_table17h7b941fecf90b965fE+0x191>
   179eb:	eb 11                	jmp    179fe <_ZN6x86_6410structures6paging6mapper17mapped_page_table24PageTableWalker$LT$P$GT$17create_next_table17h7b941fecf90b965fE+0x17e>
   179ed:	8a 44 24 71          	mov    al,BYTE PTR [rsp+0x71]
   179f1:	24 01                	and    al,0x1
   179f3:	0f b6 c0             	movzx  eax,al
   179f6:	48 83 f8 00          	cmp    rax,0x0
   179fa:	74 2e                	je     17a2a <_ZN6x86_6410structures6paging6mapper17mapped_page_table24PageTableWalker$LT$P$GT$17create_next_table17h7b941fecf90b965fE+0x1aa>
   179fc:	eb 48                	jmp    17a46 <_ZN6x86_6410structures6paging6mapper17mapped_page_table24PageTableWalker$LT$P$GT$17create_next_table17h7b941fecf90b965fE+0x1c6>
   179fe:	48 8b 44 24 28       	mov    rax,QWORD PTR [rsp+0x28]
   17a03:	48 8b 4c 24 08       	mov    rcx,QWORD PTR [rsp+0x8]
   17a08:	48 89 48 08          	mov    QWORD PTR [rax+0x8],rcx
   17a0c:	c6 00 00             	mov    BYTE PTR [rax],0x0
   17a0f:	eb 0c                	jmp    17a1d <_ZN6x86_6410structures6paging6mapper17mapped_page_table24PageTableWalker$LT$P$GT$17create_next_table17h7b941fecf90b965fE+0x19d>
   17a11:	48 8b 7c 24 08       	mov    rdi,QWORD PTR [rsp+0x8]
   17a16:	e8 75 f0 ff ff       	call   16a90 <_ZN6x86_6410structures6paging10page_table9PageTable4zero17h38c1fd5286a010d9E>
   17a1b:	eb e1                	jmp    179fe <_ZN6x86_6410structures6paging6mapper17mapped_page_table24PageTableWalker$LT$P$GT$17create_next_table17h7b941fecf90b965fE+0x17e>
   17a1d:	48 8b 44 24 30       	mov    rax,QWORD PTR [rsp+0x30]
   17a22:	48 81 c4 b8 00 00 00 	add    rsp,0xb8
   17a29:	c3                   	ret
   17a2a:	48 8d 3d be 75 ff ff 	lea    rdi,[rip+0xffffffffffff75be]        # efef <_ZN6diy_os6serial7SERIAL117h2f329108989edb16E-0x804>
   17a31:	48 8d 15 58 72 02 00 	lea    rdx,[rip+0x27258]        # 3ec90 <memmove+0x1560>
   17a38:	48 8b 05 31 f6 02 00 	mov    rax,QWORD PTR [rip+0x2f631]        # 47070 <_DYNAMIC+0x1d8>
   17a3f:	be 24 00 00 00       	mov    esi,0x24
   17a44:	ff d0                	call   rax
   17a46:	48 8b 44 24 28       	mov    rax,QWORD PTR [rsp+0x28]
   17a4b:	c6 84 24 87 00 00 00 	mov    BYTE PTR [rsp+0x87],0x0
   17a52:	00 
   17a53:	8a 8c 24 87 00 00 00 	mov    cl,BYTE PTR [rsp+0x87]
   17a5a:	80 e1 01             	and    cl,0x1
   17a5d:	88 48 01             	mov    BYTE PTR [rax+0x1],cl
   17a60:	c6 00 01             	mov    BYTE PTR [rax],0x1
   17a63:	eb b8                	jmp    17a1d <_ZN6x86_6410structures6paging6mapper17mapped_page_table24PageTableWalker$LT$P$GT$17create_next_table17h7b941fecf90b965fE+0x19d>
   17a65:	cc                   	int3
   17a66:	cc                   	int3
   17a67:	cc                   	int3
   17a68:	cc                   	int3
   17a69:	cc                   	int3
   17a6a:	cc                   	int3
   17a6b:	cc                   	int3
   17a6c:	cc                   	int3
   17a6d:	cc                   	int3
   17a6e:	cc                   	int3
   17a6f:	cc                   	int3

0000000000017a70 <_ZN6x86_6412instructions3tlb5flush17h0b2cc67fcb1df128E>:
   17a70:	50                   	push   rax
   17a71:	48 89 3c 24          	mov    QWORD PTR [rsp],rdi
   17a75:	e8 f6 f6 ff ff       	call   17170 <_ZN6x86_644addr8VirtAddr6as_u6417h57c98356631acb7aE>
   17a7a:	0f 01 38             	invlpg BYTE PTR [rax]
   17a7d:	58                   	pop    rax
   17a7e:	c3                   	ret
   17a7f:	cc                   	int3

0000000000017a80 <_ZN4core4iter6traits8iterator8Iterator3map17h273c4c8be02bf078E>:
   17a80:	48 83 ec 18          	sub    rsp,0x18
   17a84:	48 89 f8             	mov    rax,rdi
   17a87:	48 89 34 24          	mov    QWORD PTR [rsp],rsi
   17a8b:	48 89 54 24 08       	mov    QWORD PTR [rsp+0x8],rdx
   17a90:	48 89 4c 24 10       	mov    QWORD PTR [rsp+0x10],rcx
   17a95:	48 89 37             	mov    QWORD PTR [rdi],rsi
   17a98:	48 89 57 08          	mov    QWORD PTR [rdi+0x8],rdx
   17a9c:	48 89 4f 10          	mov    QWORD PTR [rdi+0x10],rcx
   17aa0:	48 83 c4 18          	add    rsp,0x18
   17aa4:	c3                   	ret
   17aa5:	cc                   	int3
   17aa6:	cc                   	int3
   17aa7:	cc                   	int3
   17aa8:	cc                   	int3
   17aa9:	cc                   	int3
   17aaa:	cc                   	int3
   17aab:	cc                   	int3
   17aac:	cc                   	int3
   17aad:	cc                   	int3
   17aae:	cc                   	int3
   17aaf:	cc                   	int3

0000000000017ab0 <_ZN153_$LT$core..result..Result$LT$T$C$F$GT$$u20$as$u20$core..ops..try_trait..FromResidual$LT$core..result..Result$LT$core..convert..Infallible$C$E$GT$$GT$$GT$13from_residual17h166171f1ab55fb0eE>:
   17ab0:	48 83 ec 38          	sub    rsp,0x38
   17ab4:	48 89 7c 24 08       	mov    QWORD PTR [rsp+0x8],rdi
   17ab9:	40 88 f0             	mov    al,sil
   17abc:	48 89 7c 24 10       	mov    QWORD PTR [rsp+0x10],rdi
   17ac1:	24 01                	and    al,0x1
   17ac3:	88 44 24 1f          	mov    BYTE PTR [rsp+0x1f],al
   17ac7:	8a 44 24 1f          	mov    al,BYTE PTR [rsp+0x1f]
   17acb:	88 c1                	mov    cl,al
   17acd:	80 e1 01             	and    cl,0x1
   17ad0:	88 4c 24 37          	mov    BYTE PTR [rsp+0x37],cl
   17ad4:	0f b6 f0             	movzx  esi,al
   17ad7:	83 e6 01             	and    esi,0x1
   17ada:	48 8d 7c 24 20       	lea    rdi,[rsp+0x20]
   17adf:	e8 0c c7 ff ff       	call   141f0 <_ZN6x86_6410structures6paging6mapper17mapped_page_table229_$LT$impl$u20$core..convert..From$LT$x86_64..structures..paging..mapper..mapped_page_table..PageTableCreateError$GT$$u20$for$u20$x86_64..structures..paging..mapper..MapToError$LT$x86_64..structures..paging..page..Size4KiB$GT$$GT$4from17ha4109da467daf361E>
   17ae4:	48 8b 7c 24 08       	mov    rdi,QWORD PTR [rsp+0x8]
   17ae9:	48 8b 44 24 10       	mov    rax,QWORD PTR [rsp+0x10]
   17aee:	48 8b 4c 24 20       	mov    rcx,QWORD PTR [rsp+0x20]
   17af3:	48 89 0f             	mov    QWORD PTR [rdi],rcx
   17af6:	48 8b 4c 24 28       	mov    rcx,QWORD PTR [rsp+0x28]
   17afb:	48 89 4f 08          	mov    QWORD PTR [rdi+0x8],rcx
   17aff:	48 83 c4 38          	add    rsp,0x38
   17b03:	c3                   	ret
   17b04:	cc                   	int3
   17b05:	cc                   	int3
   17b06:	cc                   	int3
   17b07:	cc                   	int3
   17b08:	cc                   	int3
   17b09:	cc                   	int3
   17b0a:	cc                   	int3
   17b0b:	cc                   	int3
   17b0c:	cc                   	int3
   17b0d:	cc                   	int3
   17b0e:	cc                   	int3
   17b0f:	cc                   	int3

0000000000017b10 <_ZN153_$LT$core..result..Result$LT$T$C$F$GT$$u20$as$u20$core..ops..try_trait..FromResidual$LT$core..result..Result$LT$core..convert..Infallible$C$E$GT$$GT$$GT$13from_residual17h199b6585e2f3c2d0E>:
   17b10:	48 83 ec 20          	sub    rsp,0x20
   17b14:	48 89 f8             	mov    rax,rdi
   17b17:	48 8b 0e             	mov    rcx,QWORD PTR [rsi]
   17b1a:	48 89 0c 24          	mov    QWORD PTR [rsp],rcx
   17b1e:	48 8b 4e 08          	mov    rcx,QWORD PTR [rsi+0x8]
   17b22:	48 89 4c 24 08       	mov    QWORD PTR [rsp+0x8],rcx
   17b27:	48 8b 0c 24          	mov    rcx,QWORD PTR [rsp]
   17b2b:	48 89 4c 24 10       	mov    QWORD PTR [rsp+0x10],rcx
